ARM GAS  C:\Users\yura\AppData\Local\Temp\ccLd9Hgg.s 			page 1


   1              		.syntax unified
   2              		.cpu cortex-m0
   3              		.fpu softvfp
   4              		.eabi_attribute 20, 1
   5              		.eabi_attribute 21, 1
   6              		.eabi_attribute 23, 3
   7              		.eabi_attribute 24, 1
   8              		.eabi_attribute 25, 1
   9              		.eabi_attribute 26, 1
  10              		.eabi_attribute 30, 1
  11              		.eabi_attribute 34, 0
  12              		.eabi_attribute 18, 4
  13              		.thumb
  14              		.syntax unified
  15              		.file	"cyfitter_cfg.c"
  16              		.text
  17              	.Ltext0:
  18              		.cfi_sections	.debug_frame
  19              		.section	.text.cfg_write_bytes32,"ax",%progbits
  20              		.align	2
  21              		.code	16
  22              		.thumb_func
  23              		.type	cfg_write_bytes32, %function
  24              	cfg_write_bytes32:
  25              	.LFB3:
  26              		.file 1 "Generated_Source\\PSoC4\\cyfitter_cfg.c"
   1:Generated_Source\PSoC4/cyfitter_cfg.c **** 
   2:Generated_Source\PSoC4/cyfitter_cfg.c **** /*******************************************************************************
   3:Generated_Source\PSoC4/cyfitter_cfg.c **** * File Name: cyfitter_cfg.c
   4:Generated_Source\PSoC4/cyfitter_cfg.c **** * 
   5:Generated_Source\PSoC4/cyfitter_cfg.c **** * PSoC Creator  4.4
   6:Generated_Source\PSoC4/cyfitter_cfg.c **** *
   7:Generated_Source\PSoC4/cyfitter_cfg.c **** * Description:
   8:Generated_Source\PSoC4/cyfitter_cfg.c **** * This file contains device initialization code.
   9:Generated_Source\PSoC4/cyfitter_cfg.c **** * Except for the user defined sections in CyClockStartupError(), this file should not be modified.
  10:Generated_Source\PSoC4/cyfitter_cfg.c **** * This file is automatically generated by PSoC Creator.
  11:Generated_Source\PSoC4/cyfitter_cfg.c **** *
  12:Generated_Source\PSoC4/cyfitter_cfg.c **** ********************************************************************************
  13:Generated_Source\PSoC4/cyfitter_cfg.c **** * Copyright (c) 2007-2020 Cypress Semiconductor.  All rights reserved.
  14:Generated_Source\PSoC4/cyfitter_cfg.c **** * You may use this file only in accordance with the license, terms, conditions, 
  15:Generated_Source\PSoC4/cyfitter_cfg.c **** * disclaimers, and limitations in the end user license agreement accompanying 
  16:Generated_Source\PSoC4/cyfitter_cfg.c **** * the software package with which this file was provided.
  17:Generated_Source\PSoC4/cyfitter_cfg.c **** ********************************************************************************/
  18:Generated_Source\PSoC4/cyfitter_cfg.c **** 
  19:Generated_Source\PSoC4/cyfitter_cfg.c **** #include <string.h>
  20:Generated_Source\PSoC4/cyfitter_cfg.c **** #include "cytypes.h"
  21:Generated_Source\PSoC4/cyfitter_cfg.c **** #include "cydevice_trm.h"
  22:Generated_Source\PSoC4/cyfitter_cfg.c **** #include "cyfitter.h"
  23:Generated_Source\PSoC4/cyfitter_cfg.c **** #include "CyLib.h"
  24:Generated_Source\PSoC4/cyfitter_cfg.c **** #include "CyLFClk.h"
  25:Generated_Source\PSoC4/cyfitter_cfg.c **** #include "cyfitter_cfg.h"
  26:Generated_Source\PSoC4/cyfitter_cfg.c **** #include "cyapicallbacks.h"
  27:Generated_Source\PSoC4/cyfitter_cfg.c **** 
  28:Generated_Source\PSoC4/cyfitter_cfg.c **** 
  29:Generated_Source\PSoC4/cyfitter_cfg.c **** #if defined(__GNUC__) || defined(__ARMCC_VERSION)
  30:Generated_Source\PSoC4/cyfitter_cfg.c ****     #define CYPACKED 
  31:Generated_Source\PSoC4/cyfitter_cfg.c ****     #define CYPACKED_ATTR __attribute__ ((packed))
ARM GAS  C:\Users\yura\AppData\Local\Temp\ccLd9Hgg.s 			page 2


  32:Generated_Source\PSoC4/cyfitter_cfg.c ****     #define CYALIGNED __attribute__ ((aligned))
  33:Generated_Source\PSoC4/cyfitter_cfg.c ****     #define CY_CFG_UNUSED __attribute__ ((unused))
  34:Generated_Source\PSoC4/cyfitter_cfg.c ****     #ifndef CY_CFG_SECTION
  35:Generated_Source\PSoC4/cyfitter_cfg.c ****         #define CY_CFG_SECTION __attribute__ ((section(".psocinit")))
  36:Generated_Source\PSoC4/cyfitter_cfg.c ****     #endif
  37:Generated_Source\PSoC4/cyfitter_cfg.c ****     
  38:Generated_Source\PSoC4/cyfitter_cfg.c ****     #if defined(__ARMCC_VERSION)
  39:Generated_Source\PSoC4/cyfitter_cfg.c ****         #define CY_CFG_MEMORY_BARRIER() __memory_changed()
  40:Generated_Source\PSoC4/cyfitter_cfg.c ****     #else
  41:Generated_Source\PSoC4/cyfitter_cfg.c ****         #define CY_CFG_MEMORY_BARRIER() __sync_synchronize()
  42:Generated_Source\PSoC4/cyfitter_cfg.c ****     #endif
  43:Generated_Source\PSoC4/cyfitter_cfg.c ****     
  44:Generated_Source\PSoC4/cyfitter_cfg.c **** #elif defined(__ICCARM__)
  45:Generated_Source\PSoC4/cyfitter_cfg.c ****     #include <intrinsics.h>
  46:Generated_Source\PSoC4/cyfitter_cfg.c **** 
  47:Generated_Source\PSoC4/cyfitter_cfg.c ****     #define CYPACKED __packed
  48:Generated_Source\PSoC4/cyfitter_cfg.c ****     #define CYPACKED_ATTR 
  49:Generated_Source\PSoC4/cyfitter_cfg.c ****     #define CYALIGNED _Pragma("data_alignment=4")
  50:Generated_Source\PSoC4/cyfitter_cfg.c ****     #define CY_CFG_UNUSED _Pragma("diag_suppress=Pe177")
  51:Generated_Source\PSoC4/cyfitter_cfg.c ****     #define CY_CFG_SECTION _Pragma("location=\".psocinit\"")
  52:Generated_Source\PSoC4/cyfitter_cfg.c ****     
  53:Generated_Source\PSoC4/cyfitter_cfg.c ****     #define CY_CFG_MEMORY_BARRIER() __DMB()
  54:Generated_Source\PSoC4/cyfitter_cfg.c ****     
  55:Generated_Source\PSoC4/cyfitter_cfg.c **** #else
  56:Generated_Source\PSoC4/cyfitter_cfg.c ****     #error Unsupported toolchain
  57:Generated_Source\PSoC4/cyfitter_cfg.c **** #endif
  58:Generated_Source\PSoC4/cyfitter_cfg.c **** 
  59:Generated_Source\PSoC4/cyfitter_cfg.c **** #ifndef CYCODE
  60:Generated_Source\PSoC4/cyfitter_cfg.c ****     #define CYCODE
  61:Generated_Source\PSoC4/cyfitter_cfg.c **** #endif
  62:Generated_Source\PSoC4/cyfitter_cfg.c **** #ifndef CYDATA
  63:Generated_Source\PSoC4/cyfitter_cfg.c ****     #define CYDATA
  64:Generated_Source\PSoC4/cyfitter_cfg.c **** #endif
  65:Generated_Source\PSoC4/cyfitter_cfg.c **** #ifndef CYFAR
  66:Generated_Source\PSoC4/cyfitter_cfg.c ****     #define CYFAR
  67:Generated_Source\PSoC4/cyfitter_cfg.c **** #endif
  68:Generated_Source\PSoC4/cyfitter_cfg.c **** #ifndef CYXDATA
  69:Generated_Source\PSoC4/cyfitter_cfg.c ****     #define CYXDATA
  70:Generated_Source\PSoC4/cyfitter_cfg.c **** #endif
  71:Generated_Source\PSoC4/cyfitter_cfg.c **** 
  72:Generated_Source\PSoC4/cyfitter_cfg.c **** 
  73:Generated_Source\PSoC4/cyfitter_cfg.c **** CY_CFG_UNUSED
  74:Generated_Source\PSoC4/cyfitter_cfg.c **** static void CYMEMZERO(void *s, size_t n);
  75:Generated_Source\PSoC4/cyfitter_cfg.c **** CY_CFG_UNUSED
  76:Generated_Source\PSoC4/cyfitter_cfg.c **** static void CYMEMZERO(void *s, size_t n)
  77:Generated_Source\PSoC4/cyfitter_cfg.c **** {
  78:Generated_Source\PSoC4/cyfitter_cfg.c **** 	(void)memset(s, 0, n);
  79:Generated_Source\PSoC4/cyfitter_cfg.c **** }
  80:Generated_Source\PSoC4/cyfitter_cfg.c **** CY_CFG_UNUSED
  81:Generated_Source\PSoC4/cyfitter_cfg.c **** static void CYCONFIGCPY(void *dest, const void *src, size_t n);
  82:Generated_Source\PSoC4/cyfitter_cfg.c **** CY_CFG_UNUSED
  83:Generated_Source\PSoC4/cyfitter_cfg.c **** static void CYCONFIGCPY(void *dest, const void *src, size_t n)
  84:Generated_Source\PSoC4/cyfitter_cfg.c **** {
  85:Generated_Source\PSoC4/cyfitter_cfg.c **** 	(void)memcpy(dest, src, n);
  86:Generated_Source\PSoC4/cyfitter_cfg.c **** }
  87:Generated_Source\PSoC4/cyfitter_cfg.c **** CY_CFG_UNUSED
  88:Generated_Source\PSoC4/cyfitter_cfg.c **** static void CYCONFIGCPYCODE(void *dest, const void *src, size_t n);
ARM GAS  C:\Users\yura\AppData\Local\Temp\ccLd9Hgg.s 			page 3


  89:Generated_Source\PSoC4/cyfitter_cfg.c **** CY_CFG_UNUSED
  90:Generated_Source\PSoC4/cyfitter_cfg.c **** static void CYCONFIGCPYCODE(void *dest, const void *src, size_t n)
  91:Generated_Source\PSoC4/cyfitter_cfg.c **** {
  92:Generated_Source\PSoC4/cyfitter_cfg.c **** 	(void)memcpy(dest, src, n);
  93:Generated_Source\PSoC4/cyfitter_cfg.c **** }
  94:Generated_Source\PSoC4/cyfitter_cfg.c **** 
  95:Generated_Source\PSoC4/cyfitter_cfg.c **** 
  96:Generated_Source\PSoC4/cyfitter_cfg.c **** 
  97:Generated_Source\PSoC4/cyfitter_cfg.c **** 
  98:Generated_Source\PSoC4/cyfitter_cfg.c **** /* Clock startup error codes                                                   */
  99:Generated_Source\PSoC4/cyfitter_cfg.c **** #define CYCLOCKSTART_NO_ERROR    0u
 100:Generated_Source\PSoC4/cyfitter_cfg.c **** #define CYCLOCKSTART_XTAL_ERROR  1u
 101:Generated_Source\PSoC4/cyfitter_cfg.c **** #define CYCLOCKSTART_32KHZ_ERROR 2u
 102:Generated_Source\PSoC4/cyfitter_cfg.c **** #define CYCLOCKSTART_PLL_ERROR   3u
 103:Generated_Source\PSoC4/cyfitter_cfg.c **** #define CYCLOCKSTART_FLL_ERROR   4u
 104:Generated_Source\PSoC4/cyfitter_cfg.c **** #define CYCLOCKSTART_WCO_ERROR   5u
 105:Generated_Source\PSoC4/cyfitter_cfg.c **** 
 106:Generated_Source\PSoC4/cyfitter_cfg.c **** 
 107:Generated_Source\PSoC4/cyfitter_cfg.c **** #ifdef CY_NEED_CYCLOCKSTARTUPERROR
 108:Generated_Source\PSoC4/cyfitter_cfg.c **** /*******************************************************************************
 109:Generated_Source\PSoC4/cyfitter_cfg.c **** * Function Name: CyClockStartupError
 110:Generated_Source\PSoC4/cyfitter_cfg.c **** ********************************************************************************
 111:Generated_Source\PSoC4/cyfitter_cfg.c **** * Summary:
 112:Generated_Source\PSoC4/cyfitter_cfg.c **** *  If an error is encountered during clock configuration (crystal startup error,
 113:Generated_Source\PSoC4/cyfitter_cfg.c **** *  PLL lock error, etc.), the system will end up here.  Unless reimplemented by
 114:Generated_Source\PSoC4/cyfitter_cfg.c **** *  the customer, this function will stop in an infinite loop.
 115:Generated_Source\PSoC4/cyfitter_cfg.c **** *
 116:Generated_Source\PSoC4/cyfitter_cfg.c **** * Parameters:
 117:Generated_Source\PSoC4/cyfitter_cfg.c **** *   void
 118:Generated_Source\PSoC4/cyfitter_cfg.c **** *
 119:Generated_Source\PSoC4/cyfitter_cfg.c **** * Return:
 120:Generated_Source\PSoC4/cyfitter_cfg.c **** *   void
 121:Generated_Source\PSoC4/cyfitter_cfg.c **** *
 122:Generated_Source\PSoC4/cyfitter_cfg.c **** *******************************************************************************/
 123:Generated_Source\PSoC4/cyfitter_cfg.c **** CY_CFG_UNUSED
 124:Generated_Source\PSoC4/cyfitter_cfg.c **** static void CyClockStartupError(uint8 errorCode);
 125:Generated_Source\PSoC4/cyfitter_cfg.c **** CY_CFG_UNUSED
 126:Generated_Source\PSoC4/cyfitter_cfg.c **** static void CyClockStartupError(uint8 errorCode)
 127:Generated_Source\PSoC4/cyfitter_cfg.c **** {
 128:Generated_Source\PSoC4/cyfitter_cfg.c ****     /* To remove the compiler warning if errorCode not used.                */
 129:Generated_Source\PSoC4/cyfitter_cfg.c ****     errorCode = errorCode;
 130:Generated_Source\PSoC4/cyfitter_cfg.c **** 
 131:Generated_Source\PSoC4/cyfitter_cfg.c ****     /* If we have a clock startup error (bad MHz crystal, PLL lock, etc.),  */
 132:Generated_Source\PSoC4/cyfitter_cfg.c ****     /* we will end up here to allow the customer to implement something to  */
 133:Generated_Source\PSoC4/cyfitter_cfg.c ****     /* deal with the clock condition.                                       */
 134:Generated_Source\PSoC4/cyfitter_cfg.c **** 
 135:Generated_Source\PSoC4/cyfitter_cfg.c **** #ifdef CY_CFG_CLOCK_STARTUP_ERROR_CALLBACK
 136:Generated_Source\PSoC4/cyfitter_cfg.c ****     CY_CFG_Clock_Startup_ErrorCallback();
 137:Generated_Source\PSoC4/cyfitter_cfg.c **** #else
 138:Generated_Source\PSoC4/cyfitter_cfg.c ****     /*  If not using CY_CFG_CLOCK_STARTUP_ERROR_CALLBACK, place your clock startup code here. */
 139:Generated_Source\PSoC4/cyfitter_cfg.c ****     /* `#START CyClockStartupError` */
 140:Generated_Source\PSoC4/cyfitter_cfg.c **** 
 141:Generated_Source\PSoC4/cyfitter_cfg.c **** 
 142:Generated_Source\PSoC4/cyfitter_cfg.c **** 
 143:Generated_Source\PSoC4/cyfitter_cfg.c ****     /* `#END` */
 144:Generated_Source\PSoC4/cyfitter_cfg.c **** 
 145:Generated_Source\PSoC4/cyfitter_cfg.c ****     while(1) {}
ARM GAS  C:\Users\yura\AppData\Local\Temp\ccLd9Hgg.s 			page 4


 146:Generated_Source\PSoC4/cyfitter_cfg.c **** #endif /* CY_CFG_CLOCK_STARTUP_ERROR_CALLBACK */
 147:Generated_Source\PSoC4/cyfitter_cfg.c **** }
 148:Generated_Source\PSoC4/cyfitter_cfg.c **** #endif
 149:Generated_Source\PSoC4/cyfitter_cfg.c **** 
 150:Generated_Source\PSoC4/cyfitter_cfg.c **** #define CY_CFG_BASE_ADDR_COUNT 6u
 151:Generated_Source\PSoC4/cyfitter_cfg.c **** CYPACKED typedef struct
 152:Generated_Source\PSoC4/cyfitter_cfg.c **** {
 153:Generated_Source\PSoC4/cyfitter_cfg.c **** 	uint8 offset;
 154:Generated_Source\PSoC4/cyfitter_cfg.c **** 	uint8 value;
 155:Generated_Source\PSoC4/cyfitter_cfg.c **** } CYPACKED_ATTR cy_cfg_addrvalue_t;
 156:Generated_Source\PSoC4/cyfitter_cfg.c **** 
 157:Generated_Source\PSoC4/cyfitter_cfg.c **** 
 158:Generated_Source\PSoC4/cyfitter_cfg.c **** 
 159:Generated_Source\PSoC4/cyfitter_cfg.c **** /*******************************************************************************
 160:Generated_Source\PSoC4/cyfitter_cfg.c **** * Function Name: cfg_write_bytes32
 161:Generated_Source\PSoC4/cyfitter_cfg.c **** ********************************************************************************
 162:Generated_Source\PSoC4/cyfitter_cfg.c **** * Summary:
 163:Generated_Source\PSoC4/cyfitter_cfg.c **** *  This function is used for setting up the chip configuration areas that
 164:Generated_Source\PSoC4/cyfitter_cfg.c **** *  contain relatively sparse data.
 165:Generated_Source\PSoC4/cyfitter_cfg.c **** *
 166:Generated_Source\PSoC4/cyfitter_cfg.c **** * Parameters:
 167:Generated_Source\PSoC4/cyfitter_cfg.c **** *   void
 168:Generated_Source\PSoC4/cyfitter_cfg.c **** *
 169:Generated_Source\PSoC4/cyfitter_cfg.c **** * Return:
 170:Generated_Source\PSoC4/cyfitter_cfg.c **** *   void
 171:Generated_Source\PSoC4/cyfitter_cfg.c **** *
 172:Generated_Source\PSoC4/cyfitter_cfg.c **** *******************************************************************************/
 173:Generated_Source\PSoC4/cyfitter_cfg.c **** static void cfg_write_bytes32(const uint32 addr_table[], const cy_cfg_addrvalue_t data_table[]);
 174:Generated_Source\PSoC4/cyfitter_cfg.c **** static void cfg_write_bytes32(const uint32 addr_table[], const cy_cfg_addrvalue_t data_table[])
 175:Generated_Source\PSoC4/cyfitter_cfg.c **** {
  27              		.loc 1 175 0
  28              		.cfi_startproc
  29              		@ args = 0, pretend = 0, frame = 0
  30              		@ frame_needed = 0, uses_anonymous_args = 0
  31              	.LVL0:
  32 0000 F0B5     		push	{r4, r5, r6, r7, lr}
  33              		.cfi_def_cfa_offset 20
  34              		.cfi_offset 4, -20
  35              		.cfi_offset 5, -16
  36              		.cfi_offset 6, -12
  37              		.cfi_offset 7, -8
  38              		.cfi_offset 14, -4
  39              	.LVL1:
 176:Generated_Source\PSoC4/cyfitter_cfg.c **** 	/* For 32-bit little-endian architectures */
 177:Generated_Source\PSoC4/cyfitter_cfg.c **** 	uint32 i, j = 0u;
  40              		.loc 1 177 0
  41 0002 0025     		movs	r5, #0
 178:Generated_Source\PSoC4/cyfitter_cfg.c **** 	for (i = 0u; i < CY_CFG_BASE_ADDR_COUNT; i++)
  42              		.loc 1 178 0
  43 0004 0027     		movs	r7, #0
  44 0006 11E0     		b	.L2
  45              	.LVL2:
  46              	.L5:
  47              	.LBB2:
 179:Generated_Source\PSoC4/cyfitter_cfg.c **** 	{
 180:Generated_Source\PSoC4/cyfitter_cfg.c **** 		uint32 baseAddr = addr_table[i];
  48              		.loc 1 180 0
ARM GAS  C:\Users\yura\AppData\Local\Temp\ccLd9Hgg.s 			page 5


  49 0008 BB00     		lsls	r3, r7, #2
  50 000a C658     		ldr	r6, [r0, r3]
  51              	.LVL3:
 181:Generated_Source\PSoC4/cyfitter_cfg.c **** 		uint8 count = (uint8)baseAddr;
  52              		.loc 1 181 0
  53 000c F3B2     		uxtb	r3, r6
  54              	.LVL4:
 182:Generated_Source\PSoC4/cyfitter_cfg.c **** 		baseAddr &= 0xFFFFFF00u;
  55              		.loc 1 182 0
  56 000e FF22     		movs	r2, #255
  57 0010 9643     		bics	r6, r2
  58              	.LVL5:
 183:Generated_Source\PSoC4/cyfitter_cfg.c **** 		while (count != 0u)
  59              		.loc 1 183 0
  60 0012 08E0     		b	.L3
  61              	.L4:
 184:Generated_Source\PSoC4/cyfitter_cfg.c **** 		{
 185:Generated_Source\PSoC4/cyfitter_cfg.c **** 			CY_SET_REG8((void *)(baseAddr + data_table[j].offset), data_table[j].value);
  62              		.loc 1 185 0
  63 0014 6A00     		lsls	r2, r5, #1
  64 0016 8A18     		adds	r2, r1, r2
  65 0018 1478     		ldrb	r4, [r2]
  66 001a A419     		adds	r4, r4, r6
  67 001c 5278     		ldrb	r2, [r2, #1]
  68 001e 2270     		strb	r2, [r4]
 186:Generated_Source\PSoC4/cyfitter_cfg.c **** 			j++;
  69              		.loc 1 186 0
  70 0020 0135     		adds	r5, r5, #1
  71              	.LVL6:
 187:Generated_Source\PSoC4/cyfitter_cfg.c **** 			count--;
  72              		.loc 1 187 0
  73 0022 013B     		subs	r3, r3, #1
  74              	.LVL7:
  75 0024 DBB2     		uxtb	r3, r3
  76              	.LVL8:
  77              	.L3:
 183:Generated_Source\PSoC4/cyfitter_cfg.c **** 		{
  78              		.loc 1 183 0
  79 0026 002B     		cmp	r3, #0
  80 0028 F4D1     		bne	.L4
  81              	.LBE2:
 178:Generated_Source\PSoC4/cyfitter_cfg.c **** 	{
  82              		.loc 1 178 0 discriminator 2
  83 002a 0137     		adds	r7, r7, #1
  84              	.LVL9:
  85              	.L2:
 178:Generated_Source\PSoC4/cyfitter_cfg.c **** 	{
  86              		.loc 1 178 0 is_stmt 0 discriminator 1
  87 002c 052F     		cmp	r7, #5
  88 002e EBD9     		bls	.L5
 188:Generated_Source\PSoC4/cyfitter_cfg.c **** 		}
 189:Generated_Source\PSoC4/cyfitter_cfg.c **** 	}
 190:Generated_Source\PSoC4/cyfitter_cfg.c **** }
  89              		.loc 1 190 0 is_stmt 1
  90              		@ sp needed
  91              	.LVL10:
  92              	.LVL11:
ARM GAS  C:\Users\yura\AppData\Local\Temp\ccLd9Hgg.s 			page 6


  93 0030 F0BD     		pop	{r4, r5, r6, r7, pc}
  94              		.cfi_endproc
  95              	.LFE3:
  96              		.size	cfg_write_bytes32, .-cfg_write_bytes32
  97 0032 C046     		.section	.text.CYMEMZERO,"ax",%progbits
  98              		.align	2
  99              		.code	16
 100              		.thumb_func
 101              		.type	CYMEMZERO, %function
 102              	CYMEMZERO:
 103              	.LFB0:
  77:Generated_Source\PSoC4/cyfitter_cfg.c **** 	(void)memset(s, 0, n);
 104              		.loc 1 77 0
 105              		.cfi_startproc
 106              		@ args = 0, pretend = 0, frame = 0
 107              		@ frame_needed = 0, uses_anonymous_args = 0
 108              	.LVL12:
 109 0000 10B5     		push	{r4, lr}
 110              		.cfi_def_cfa_offset 8
 111              		.cfi_offset 4, -8
 112              		.cfi_offset 14, -4
 113 0002 0A00     		movs	r2, r1
  78:Generated_Source\PSoC4/cyfitter_cfg.c **** }
 114              		.loc 1 78 0
 115 0004 0021     		movs	r1, #0
 116              	.LVL13:
 117 0006 FFF7FEFF 		bl	memset
 118              	.LVL14:
  79:Generated_Source\PSoC4/cyfitter_cfg.c **** CY_CFG_UNUSED
 119              		.loc 1 79 0
 120              		@ sp needed
 121 000a 10BD     		pop	{r4, pc}
 122              		.cfi_endproc
 123              	.LFE0:
 124              		.size	CYMEMZERO, .-CYMEMZERO
 125              		.section	.psocinit,"ax",%progbits
 126              		.align	2
 127              		.code	16
 128              		.thumb_func
 129              		.type	ClockSetup, %function
 130              	ClockSetup:
 131              	.LFB4:
 191:Generated_Source\PSoC4/cyfitter_cfg.c **** 
 192:Generated_Source\PSoC4/cyfitter_cfg.c **** 
 193:Generated_Source\PSoC4/cyfitter_cfg.c **** /*******************************************************************************
 194:Generated_Source\PSoC4/cyfitter_cfg.c **** * Function Name: ClockSetup
 195:Generated_Source\PSoC4/cyfitter_cfg.c **** ********************************************************************************
 196:Generated_Source\PSoC4/cyfitter_cfg.c **** *
 197:Generated_Source\PSoC4/cyfitter_cfg.c **** * Summary:
 198:Generated_Source\PSoC4/cyfitter_cfg.c **** *   Performs the initialization of all of the clocks in the device based on the
 199:Generated_Source\PSoC4/cyfitter_cfg.c **** *   settings in the Clock tab of the DWR.  This includes enabling the requested
 200:Generated_Source\PSoC4/cyfitter_cfg.c **** *   clocks and setting the necessary dividers to produce the desired frequency. 
 201:Generated_Source\PSoC4/cyfitter_cfg.c **** *
 202:Generated_Source\PSoC4/cyfitter_cfg.c **** * Parameters:
 203:Generated_Source\PSoC4/cyfitter_cfg.c **** *   void
 204:Generated_Source\PSoC4/cyfitter_cfg.c **** *
 205:Generated_Source\PSoC4/cyfitter_cfg.c **** * Return:
ARM GAS  C:\Users\yura\AppData\Local\Temp\ccLd9Hgg.s 			page 7


 206:Generated_Source\PSoC4/cyfitter_cfg.c **** *   void
 207:Generated_Source\PSoC4/cyfitter_cfg.c **** *
 208:Generated_Source\PSoC4/cyfitter_cfg.c **** *******************************************************************************/
 209:Generated_Source\PSoC4/cyfitter_cfg.c **** static void ClockSetup(void);
 210:Generated_Source\PSoC4/cyfitter_cfg.c **** CY_CFG_SECTION
 211:Generated_Source\PSoC4/cyfitter_cfg.c **** static void ClockSetup(void)
 212:Generated_Source\PSoC4/cyfitter_cfg.c **** {
 132              		.loc 1 212 0
 133              		.cfi_startproc
 134              		@ args = 0, pretend = 0, frame = 0
 135              		@ frame_needed = 0, uses_anonymous_args = 0
 136 0000 70B5     		push	{r4, r5, r6, lr}
 137              		.cfi_def_cfa_offset 16
 138              		.cfi_offset 4, -16
 139              		.cfi_offset 5, -12
 140              		.cfi_offset 6, -8
 141              		.cfi_offset 14, -4
 213:Generated_Source\PSoC4/cyfitter_cfg.c **** 	/* Enable HALF_EN before trimming for the flash accelerator. */
 214:Generated_Source\PSoC4/cyfitter_cfg.c **** 	CY_SET_REG32((void CYXDATA *)(CYREG_CLK_SELECT), (CY_GET_REG32((void *)CYREG_CLK_SELECT) | 0x00040
 142              		.loc 1 214 0
 143 0002 194C     		ldr	r4, .L8
 144 0004 2368     		ldr	r3, [r4]
 145 0006 8022     		movs	r2, #128
 146 0008 D202     		lsls	r2, r2, #11
 147 000a 1343     		orrs	r3, r2
 148 000c 2360     		str	r3, [r4]
 215:Generated_Source\PSoC4/cyfitter_cfg.c **** 
 216:Generated_Source\PSoC4/cyfitter_cfg.c **** 	/* Setup and trim IMO based on desired frequency. */
 217:Generated_Source\PSoC4/cyfitter_cfg.c **** 	CySysClkWriteImoFreq(24u);
 149              		.loc 1 217 0
 150 000e 1820     		movs	r0, #24
 151 0010 FFF7FEFF 		bl	CySysClkWriteImoFreq
 152              	.LVL15:
 218:Generated_Source\PSoC4/cyfitter_cfg.c **** 
 219:Generated_Source\PSoC4/cyfitter_cfg.c **** 	/* Disable HALF_EN since it is not required at this IMO frequency. */
 220:Generated_Source\PSoC4/cyfitter_cfg.c **** 	CY_SET_REG32((void CYXDATA *)(CYREG_CLK_SELECT), (CY_GET_REG32((void *)CYREG_CLK_SELECT) & 0xFFFBF
 153              		.loc 1 220 0
 154 0014 2268     		ldr	r2, [r4]
 155 0016 154B     		ldr	r3, .L8+4
 156 0018 1340     		ands	r3, r2
 157 001a 2360     		str	r3, [r4]
 221:Generated_Source\PSoC4/cyfitter_cfg.c **** 	/* CYDEV_CLK_ILO_CONFIG Starting address: CYDEV_CLK_ILO_CONFIG */
 222:Generated_Source\PSoC4/cyfitter_cfg.c **** 	CY_SET_REG32((void *)(CYREG_CLK_ILO_CONFIG), 0x80000006u);
 158              		.loc 1 222 0
 159 001c 144A     		ldr	r2, .L8+8
 160 001e 154B     		ldr	r3, .L8+12
 161 0020 1A60     		str	r2, [r3]
 223:Generated_Source\PSoC4/cyfitter_cfg.c **** 
 224:Generated_Source\PSoC4/cyfitter_cfg.c **** 
 225:Generated_Source\PSoC4/cyfitter_cfg.c **** 	/* CYDEV_CLK_SELECT00 Starting address: CYDEV_CLK_SELECT00 */
 226:Generated_Source\PSoC4/cyfitter_cfg.c **** 	CY_SET_REG32((void *)(CYREG_CLK_SELECT03), 0x00000010u);
 162              		.loc 1 226 0
 163 0022 1022     		movs	r2, #16
 164 0024 144B     		ldr	r3, .L8+16
 165 0026 1A60     		str	r2, [r3]
 227:Generated_Source\PSoC4/cyfitter_cfg.c **** 	CY_SET_REG32((void *)(CYREG_CLK_SELECT07), 0x00000020u);
 166              		.loc 1 227 0
ARM GAS  C:\Users\yura\AppData\Local\Temp\ccLd9Hgg.s 			page 8


 167 0028 1032     		adds	r2, r2, #16
 168 002a 144B     		ldr	r3, .L8+20
 169 002c 1A60     		str	r2, [r3]
 228:Generated_Source\PSoC4/cyfitter_cfg.c **** 	CY_SET_REG32((void *)(CYREG_CLK_SELECT08), 0x00000030u);
 170              		.loc 1 228 0
 171 002e 1032     		adds	r2, r2, #16
 172 0030 134B     		ldr	r3, .L8+24
 173 0032 1A60     		str	r2, [r3]
 229:Generated_Source\PSoC4/cyfitter_cfg.c **** 
 230:Generated_Source\PSoC4/cyfitter_cfg.c **** 	/* CYDEV_CLK_IMO_CONFIG Starting address: CYDEV_CLK_IMO_CONFIG */
 231:Generated_Source\PSoC4/cyfitter_cfg.c **** 	CY_SET_REG32((void *)(CYREG_CLK_IMO_CONFIG), 0x82000000u);
 174              		.loc 1 231 0
 175 0034 8222     		movs	r2, #130
 176 0036 1206     		lsls	r2, r2, #24
 177 0038 124B     		ldr	r3, .L8+28
 178 003a 1A60     		str	r2, [r3]
 232:Generated_Source\PSoC4/cyfitter_cfg.c **** 
 233:Generated_Source\PSoC4/cyfitter_cfg.c **** 	/* CYDEV_CLK_SELECT Starting address: CYDEV_CLK_SELECT */
 234:Generated_Source\PSoC4/cyfitter_cfg.c **** 	CY_SET_REG32((void *)(CYREG_CLK_SELECT), 0x00000000u);
 179              		.loc 1 234 0
 180 003c 0025     		movs	r5, #0
 181 003e 2560     		str	r5, [r4]
 235:Generated_Source\PSoC4/cyfitter_cfg.c **** 
 236:Generated_Source\PSoC4/cyfitter_cfg.c **** 	/* CYDEV_CLK_DIVIDER_A00 Starting address: CYDEV_CLK_DIVIDER_A00 */
 237:Generated_Source\PSoC4/cyfitter_cfg.c **** 	CY_SET_REG32((void *)(CYREG_CLK_DIVIDER_A00), 0x8000000Eu);
 182              		.loc 1 237 0
 183 0040 114A     		ldr	r2, .L8+32
 184 0042 124B     		ldr	r3, .L8+36
 185 0044 1A60     		str	r2, [r3]
 238:Generated_Source\PSoC4/cyfitter_cfg.c **** 
 239:Generated_Source\PSoC4/cyfitter_cfg.c **** 	/* CYDEV_CLK_DIVIDER_B00 Starting address: CYDEV_CLK_DIVIDER_B00 */
 240:Generated_Source\PSoC4/cyfitter_cfg.c **** 	CY_SET_REG32((void *)(CYREG_CLK_DIVIDER_B00), 0x80000016u);
 186              		.loc 1 240 0
 187 0046 124A     		ldr	r2, .L8+40
 188 0048 124B     		ldr	r3, .L8+44
 189 004a 1A60     		str	r2, [r3]
 241:Generated_Source\PSoC4/cyfitter_cfg.c **** 
 242:Generated_Source\PSoC4/cyfitter_cfg.c **** 	/* CYDEV_CLK_DIVIDER_C00 Starting address: CYDEV_CLK_DIVIDER_C00 */
 243:Generated_Source\PSoC4/cyfitter_cfg.c **** 	CY_SET_REG32((void *)(CYREG_CLK_DIVIDER_C00), 0x80000017u);
 190              		.loc 1 243 0
 191 004c 124A     		ldr	r2, .L8+48
 192 004e 134B     		ldr	r3, .L8+52
 193 0050 1A60     		str	r2, [r3]
 244:Generated_Source\PSoC4/cyfitter_cfg.c **** 
 245:Generated_Source\PSoC4/cyfitter_cfg.c **** 	(void)CyIntSetVector(9u, &CySysWdtIsr);
 194              		.loc 1 245 0
 195 0052 1349     		ldr	r1, .L8+56
 196 0054 0920     		movs	r0, #9
 197 0056 FFF7FEFF 		bl	CyIntSetVector
 198              	.LVL16:
 246:Generated_Source\PSoC4/cyfitter_cfg.c **** 	CyIntEnable(9u);
 199              		.loc 1 246 0
 200 005a 0920     		movs	r0, #9
 201 005c FFF7FEFF 		bl	CyIntEnable
 202              	.LVL17:
 247:Generated_Source\PSoC4/cyfitter_cfg.c **** 	CY_SET_REG32((void *)(CYREG_WDT_CONFIG), 0x00000000u);
 203              		.loc 1 247 0
ARM GAS  C:\Users\yura\AppData\Local\Temp\ccLd9Hgg.s 			page 9


 204 0060 104B     		ldr	r3, .L8+60
 205 0062 1D60     		str	r5, [r3]
 248:Generated_Source\PSoC4/cyfitter_cfg.c **** }
 206              		.loc 1 248 0
 207              		@ sp needed
 208 0064 70BD     		pop	{r4, r5, r6, pc}
 209              	.L9:
 210 0066 C046     		.align	2
 211              	.L8:
 212 0068 00010B40 		.word	1074462976
 213 006c FFFFFBFF 		.word	-262145
 214 0070 06000080 		.word	-2147483642
 215 0074 04010B40 		.word	1074462980
 216 0078 0C020240 		.word	1073873420
 217 007c 1C020240 		.word	1073873436
 218 0080 20020240 		.word	1073873440
 219 0084 08010B40 		.word	1074462984
 220 0088 0E000080 		.word	-2147483634
 221 008c 00000240 		.word	1073872896
 222 0090 16000080 		.word	-2147483626
 223 0094 40000240 		.word	1073872960
 224 0098 17000080 		.word	-2147483625
 225 009c 80000240 		.word	1073873024
 226 00a0 00000000 		.word	CySysWdtIsr
 227 00a4 0C020B40 		.word	1074463244
 228              		.cfi_endproc
 229              	.LFE4:
 230              		.size	ClockSetup, .-ClockSetup
 231              		.section	.text.SetAnalogRoutingPumps,"ax",%progbits
 232              		.align	2
 233              		.global	SetAnalogRoutingPumps
 234              		.code	16
 235              		.thumb_func
 236              		.type	SetAnalogRoutingPumps, %function
 237              	SetAnalogRoutingPumps:
 238              	.LFB6:
 249:Generated_Source\PSoC4/cyfitter_cfg.c **** 
 250:Generated_Source\PSoC4/cyfitter_cfg.c **** 
 251:Generated_Source\PSoC4/cyfitter_cfg.c **** /* Analog API Functions */
 252:Generated_Source\PSoC4/cyfitter_cfg.c **** 
 253:Generated_Source\PSoC4/cyfitter_cfg.c **** 
 254:Generated_Source\PSoC4/cyfitter_cfg.c **** /*******************************************************************************
 255:Generated_Source\PSoC4/cyfitter_cfg.c **** * Function Name: AnalogSetDefault
 256:Generated_Source\PSoC4/cyfitter_cfg.c **** ********************************************************************************
 257:Generated_Source\PSoC4/cyfitter_cfg.c **** *
 258:Generated_Source\PSoC4/cyfitter_cfg.c **** * Summary:
 259:Generated_Source\PSoC4/cyfitter_cfg.c **** *  Sets up the analog portions of the chip to default values based on chip
 260:Generated_Source\PSoC4/cyfitter_cfg.c **** *  configuration options from the project.
 261:Generated_Source\PSoC4/cyfitter_cfg.c **** *
 262:Generated_Source\PSoC4/cyfitter_cfg.c **** * Parameters:
 263:Generated_Source\PSoC4/cyfitter_cfg.c **** *  void
 264:Generated_Source\PSoC4/cyfitter_cfg.c **** *
 265:Generated_Source\PSoC4/cyfitter_cfg.c **** * Return:
 266:Generated_Source\PSoC4/cyfitter_cfg.c **** *  void
 267:Generated_Source\PSoC4/cyfitter_cfg.c **** *
 268:Generated_Source\PSoC4/cyfitter_cfg.c **** *******************************************************************************/
 269:Generated_Source\PSoC4/cyfitter_cfg.c **** static void AnalogSetDefault(void);
ARM GAS  C:\Users\yura\AppData\Local\Temp\ccLd9Hgg.s 			page 10


 270:Generated_Source\PSoC4/cyfitter_cfg.c **** static void AnalogSetDefault(void)
 271:Generated_Source\PSoC4/cyfitter_cfg.c **** {
 272:Generated_Source\PSoC4/cyfitter_cfg.c **** 	CY_SET_XTND_REG32((void CYFAR *)CYREG_SAR_MUX_SWITCH0, 0x00000001u);
 273:Generated_Source\PSoC4/cyfitter_cfg.c **** 	SetAnalogRoutingPumps(1);
 274:Generated_Source\PSoC4/cyfitter_cfg.c **** }
 275:Generated_Source\PSoC4/cyfitter_cfg.c **** 
 276:Generated_Source\PSoC4/cyfitter_cfg.c **** 
 277:Generated_Source\PSoC4/cyfitter_cfg.c **** /*******************************************************************************
 278:Generated_Source\PSoC4/cyfitter_cfg.c **** * Function Name: SetAnalogRoutingPumps
 279:Generated_Source\PSoC4/cyfitter_cfg.c **** ********************************************************************************
 280:Generated_Source\PSoC4/cyfitter_cfg.c **** *
 281:Generated_Source\PSoC4/cyfitter_cfg.c **** * Summary:
 282:Generated_Source\PSoC4/cyfitter_cfg.c **** * Enables or disables the analog pumps feeding analog routing switches.
 283:Generated_Source\PSoC4/cyfitter_cfg.c **** * Intended to be called at startup, based on the Vdda system configuration;
 284:Generated_Source\PSoC4/cyfitter_cfg.c **** * may be called during operation when the user informs us that the Vdda voltage crossed the pump th
 285:Generated_Source\PSoC4/cyfitter_cfg.c **** *
 286:Generated_Source\PSoC4/cyfitter_cfg.c **** * Parameters:
 287:Generated_Source\PSoC4/cyfitter_cfg.c **** *  enabled - 1 to enable the pumps, 0 to disable the pumps
 288:Generated_Source\PSoC4/cyfitter_cfg.c **** *
 289:Generated_Source\PSoC4/cyfitter_cfg.c **** * Return:
 290:Generated_Source\PSoC4/cyfitter_cfg.c **** *  void
 291:Generated_Source\PSoC4/cyfitter_cfg.c **** *
 292:Generated_Source\PSoC4/cyfitter_cfg.c **** *******************************************************************************/
 293:Generated_Source\PSoC4/cyfitter_cfg.c **** void SetAnalogRoutingPumps(uint8 enabled)
 294:Generated_Source\PSoC4/cyfitter_cfg.c **** {
 239              		.loc 1 294 0
 240              		.cfi_startproc
 241              		@ args = 0, pretend = 0, frame = 0
 242              		@ frame_needed = 0, uses_anonymous_args = 0
 243              		@ link register save eliminated.
 244              	.LVL18:
 295:Generated_Source\PSoC4/cyfitter_cfg.c **** 	uint32 regValue = CY_GET_XTND_REG32((void *)(CYREG_SAR_PUMP_CTRL));
 245              		.loc 1 295 0
 246 0000 064B     		ldr	r3, .L13
 247 0002 1B68     		ldr	r3, [r3]
 248              	.LVL19:
 296:Generated_Source\PSoC4/cyfitter_cfg.c **** 	if (enabled != 0u)
 249              		.loc 1 296 0
 250 0004 0028     		cmp	r0, #0
 251 0006 03D0     		beq	.L11
 297:Generated_Source\PSoC4/cyfitter_cfg.c **** 	{
 298:Generated_Source\PSoC4/cyfitter_cfg.c **** 		regValue |= 0x80000000u;
 252              		.loc 1 298 0
 253 0008 8022     		movs	r2, #128
 254 000a 1206     		lsls	r2, r2, #24
 255 000c 1343     		orrs	r3, r2
 256              	.LVL20:
 257 000e 01E0     		b	.L12
 258              	.L11:
 299:Generated_Source\PSoC4/cyfitter_cfg.c **** 	}
 300:Generated_Source\PSoC4/cyfitter_cfg.c **** 	else
 301:Generated_Source\PSoC4/cyfitter_cfg.c **** 	{
 302:Generated_Source\PSoC4/cyfitter_cfg.c **** 		regValue &= ~0x80000000u;
 259              		.loc 1 302 0
 260 0010 5B00     		lsls	r3, r3, #1
 261              	.LVL21:
 262 0012 5B08     		lsrs	r3, r3, #1
ARM GAS  C:\Users\yura\AppData\Local\Temp\ccLd9Hgg.s 			page 11


 263              	.LVL22:
 264              	.L12:
 303:Generated_Source\PSoC4/cyfitter_cfg.c **** 	}
 304:Generated_Source\PSoC4/cyfitter_cfg.c **** 	CY_SET_XTND_REG32((void *)(CYREG_SAR_PUMP_CTRL), regValue);
 265              		.loc 1 304 0
 266 0014 014A     		ldr	r2, .L13
 267 0016 1360     		str	r3, [r2]
 305:Generated_Source\PSoC4/cyfitter_cfg.c **** }
 268              		.loc 1 305 0
 269              		@ sp needed
 270 0018 7047     		bx	lr
 271              	.L14:
 272 001a C046     		.align	2
 273              	.L13:
 274 001c 80031A40 		.word	1075446656
 275              		.cfi_endproc
 276              	.LFE6:
 277              		.size	SetAnalogRoutingPumps, .-SetAnalogRoutingPumps
 278              		.section	.text.AnalogSetDefault,"ax",%progbits
 279              		.align	2
 280              		.code	16
 281              		.thumb_func
 282              		.type	AnalogSetDefault, %function
 283              	AnalogSetDefault:
 284              	.LFB5:
 271:Generated_Source\PSoC4/cyfitter_cfg.c **** 	CY_SET_XTND_REG32((void CYFAR *)CYREG_SAR_MUX_SWITCH0, 0x00000001u);
 285              		.loc 1 271 0
 286              		.cfi_startproc
 287              		@ args = 0, pretend = 0, frame = 0
 288              		@ frame_needed = 0, uses_anonymous_args = 0
 289 0000 10B5     		push	{r4, lr}
 290              		.cfi_def_cfa_offset 8
 291              		.cfi_offset 4, -8
 292              		.cfi_offset 14, -4
 272:Generated_Source\PSoC4/cyfitter_cfg.c **** 	SetAnalogRoutingPumps(1);
 293              		.loc 1 272 0
 294 0002 0122     		movs	r2, #1
 295 0004 024B     		ldr	r3, .L16
 296 0006 1A60     		str	r2, [r3]
 273:Generated_Source\PSoC4/cyfitter_cfg.c **** }
 297              		.loc 1 273 0
 298 0008 0120     		movs	r0, #1
 299 000a FFF7FEFF 		bl	SetAnalogRoutingPumps
 300              	.LVL23:
 274:Generated_Source\PSoC4/cyfitter_cfg.c **** 
 301              		.loc 1 274 0
 302              		@ sp needed
 303 000e 10BD     		pop	{r4, pc}
 304              	.L17:
 305              		.align	2
 306              	.L16:
 307 0010 00031A40 		.word	1075446528
 308              		.cfi_endproc
 309              	.LFE5:
 310              		.size	AnalogSetDefault, .-AnalogSetDefault
 311              		.section	.psocinit
 312              		.align	2
ARM GAS  C:\Users\yura\AppData\Local\Temp\ccLd9Hgg.s 			page 12


 313              		.global	cyfitter_cfg
 314              		.code	16
 315              		.thumb_func
 316              		.type	cyfitter_cfg, %function
 317              	cyfitter_cfg:
 318              	.LFB7:
 306:Generated_Source\PSoC4/cyfitter_cfg.c **** 
 307:Generated_Source\PSoC4/cyfitter_cfg.c **** 
 308:Generated_Source\PSoC4/cyfitter_cfg.c **** 
 309:Generated_Source\PSoC4/cyfitter_cfg.c **** 
 310:Generated_Source\PSoC4/cyfitter_cfg.c **** /*******************************************************************************
 311:Generated_Source\PSoC4/cyfitter_cfg.c **** * Function Name: cyfitter_cfg
 312:Generated_Source\PSoC4/cyfitter_cfg.c **** ********************************************************************************
 313:Generated_Source\PSoC4/cyfitter_cfg.c **** * Summary:
 314:Generated_Source\PSoC4/cyfitter_cfg.c **** *  This function is called by the start-up code for the selected device. It
 315:Generated_Source\PSoC4/cyfitter_cfg.c **** *  performs all of the necessary device configuration based on the design
 316:Generated_Source\PSoC4/cyfitter_cfg.c **** *  settings.  This includes settings from the Design Wide Resources (DWR) such
 317:Generated_Source\PSoC4/cyfitter_cfg.c **** *  as Clocks and Pins as well as any component configuration that is necessary.
 318:Generated_Source\PSoC4/cyfitter_cfg.c **** *
 319:Generated_Source\PSoC4/cyfitter_cfg.c **** * Parameters:
 320:Generated_Source\PSoC4/cyfitter_cfg.c **** *   void
 321:Generated_Source\PSoC4/cyfitter_cfg.c **** *
 322:Generated_Source\PSoC4/cyfitter_cfg.c **** * Return:
 323:Generated_Source\PSoC4/cyfitter_cfg.c **** *   void
 324:Generated_Source\PSoC4/cyfitter_cfg.c **** *
 325:Generated_Source\PSoC4/cyfitter_cfg.c **** *******************************************************************************/
 326:Generated_Source\PSoC4/cyfitter_cfg.c **** CY_CFG_SECTION
 327:Generated_Source\PSoC4/cyfitter_cfg.c **** void cyfitter_cfg(void)
 328:Generated_Source\PSoC4/cyfitter_cfg.c **** {
 319              		.loc 1 328 0
 320              		.cfi_startproc
 321              		@ args = 0, pretend = 0, frame = 0
 322              		@ frame_needed = 0, uses_anonymous_args = 0
 323 00a8 10B5     		push	{r4, lr}
 324              		.cfi_def_cfa_offset 8
 325              		.cfi_offset 4, -8
 326              		.cfi_offset 14, -4
 329:Generated_Source\PSoC4/cyfitter_cfg.c **** 	/* Disable interrupts by default. Let user enable if/when they want. */
 330:Generated_Source\PSoC4/cyfitter_cfg.c **** 	CyGlobalIntDisable;
 327              		.loc 1 330 0
 328              		.syntax divided
 329              	@ 330 "Generated_Source\PSoC4\cyfitter_cfg.c" 1
 330 00aa 72B6     		CPSID   i
 331              	@ 0 "" 2
 332              	.LVL24:
 333              		.thumb
 334              		.syntax unified
 335              	.LBB3:
 331:Generated_Source\PSoC4/cyfitter_cfg.c **** 
 332:Generated_Source\PSoC4/cyfitter_cfg.c **** 	{
 333:Generated_Source\PSoC4/cyfitter_cfg.c **** 		static const uint32 CYCODE cy_cfg_addr_table[] = {
 334:Generated_Source\PSoC4/cyfitter_cfg.c **** 			0x400F3101u, /* Base address: 0x400F3100 Count: 1 */
 335:Generated_Source\PSoC4/cyfitter_cfg.c **** 			0x400F320Fu, /* Base address: 0x400F3200 Count: 15 */
 336:Generated_Source\PSoC4/cyfitter_cfg.c **** 			0x400F331Eu, /* Base address: 0x400F3300 Count: 30 */
 337:Generated_Source\PSoC4/cyfitter_cfg.c **** 			0x400F4008u, /* Base address: 0x400F4000 Count: 8 */
 338:Generated_Source\PSoC4/cyfitter_cfg.c **** 			0x400F4108u, /* Base address: 0x400F4100 Count: 8 */
 339:Generated_Source\PSoC4/cyfitter_cfg.c **** 			0x400F430Du, /* Base address: 0x400F4300 Count: 13 */
ARM GAS  C:\Users\yura\AppData\Local\Temp\ccLd9Hgg.s 			page 13


 340:Generated_Source\PSoC4/cyfitter_cfg.c **** 		};
 341:Generated_Source\PSoC4/cyfitter_cfg.c **** 
 342:Generated_Source\PSoC4/cyfitter_cfg.c **** 		static const cy_cfg_addrvalue_t CYCODE cy_cfg_data_table[] = {
 343:Generated_Source\PSoC4/cyfitter_cfg.c **** 			{0x82u, 0x10u},
 344:Generated_Source\PSoC4/cyfitter_cfg.c **** 			{0x08u, 0x01u},
 345:Generated_Source\PSoC4/cyfitter_cfg.c **** 			{0x14u, 0x04u},
 346:Generated_Source\PSoC4/cyfitter_cfg.c **** 			{0x1Cu, 0x02u},
 347:Generated_Source\PSoC4/cyfitter_cfg.c **** 			{0x30u, 0x04u},
 348:Generated_Source\PSoC4/cyfitter_cfg.c **** 			{0x32u, 0x02u},
 349:Generated_Source\PSoC4/cyfitter_cfg.c **** 			{0x34u, 0x01u},
 350:Generated_Source\PSoC4/cyfitter_cfg.c **** 			{0x3Eu, 0x15u},
 351:Generated_Source\PSoC4/cyfitter_cfg.c **** 			{0x58u, 0x04u},
 352:Generated_Source\PSoC4/cyfitter_cfg.c **** 			{0x5Bu, 0x04u},
 353:Generated_Source\PSoC4/cyfitter_cfg.c **** 			{0x5Fu, 0x01u},
 354:Generated_Source\PSoC4/cyfitter_cfg.c **** 			{0xACu, 0x01u},
 355:Generated_Source\PSoC4/cyfitter_cfg.c **** 			{0xB2u, 0x01u},
 356:Generated_Source\PSoC4/cyfitter_cfg.c **** 			{0xBEu, 0x04u},
 357:Generated_Source\PSoC4/cyfitter_cfg.c **** 			{0xD8u, 0x04u},
 358:Generated_Source\PSoC4/cyfitter_cfg.c **** 			{0xDFu, 0x01u},
 359:Generated_Source\PSoC4/cyfitter_cfg.c **** 			{0x07u, 0x04u},
 360:Generated_Source\PSoC4/cyfitter_cfg.c **** 			{0x0Du, 0x80u},
 361:Generated_Source\PSoC4/cyfitter_cfg.c **** 			{0x0Eu, 0x10u},
 362:Generated_Source\PSoC4/cyfitter_cfg.c **** 			{0x10u, 0x01u},
 363:Generated_Source\PSoC4/cyfitter_cfg.c **** 			{0x19u, 0x08u},
 364:Generated_Source\PSoC4/cyfitter_cfg.c **** 			{0x1Au, 0x20u},
 365:Generated_Source\PSoC4/cyfitter_cfg.c **** 			{0x1Cu, 0x50u},
 366:Generated_Source\PSoC4/cyfitter_cfg.c **** 			{0x1Du, 0x08u},
 367:Generated_Source\PSoC4/cyfitter_cfg.c **** 			{0x1Fu, 0x11u},
 368:Generated_Source\PSoC4/cyfitter_cfg.c **** 			{0x5Cu, 0x50u},
 369:Generated_Source\PSoC4/cyfitter_cfg.c **** 			{0x5Du, 0x08u},
 370:Generated_Source\PSoC4/cyfitter_cfg.c **** 			{0x5Fu, 0x02u},
 371:Generated_Source\PSoC4/cyfitter_cfg.c **** 			{0x82u, 0x10u},
 372:Generated_Source\PSoC4/cyfitter_cfg.c **** 			{0x87u, 0x12u},
 373:Generated_Source\PSoC4/cyfitter_cfg.c **** 			{0x88u, 0x01u},
 374:Generated_Source\PSoC4/cyfitter_cfg.c **** 			{0x89u, 0x80u},
 375:Generated_Source\PSoC4/cyfitter_cfg.c **** 			{0x8Fu, 0x01u},
 376:Generated_Source\PSoC4/cyfitter_cfg.c **** 			{0x92u, 0x10u},
 377:Generated_Source\PSoC4/cyfitter_cfg.c **** 			{0x9Bu, 0x04u},
 378:Generated_Source\PSoC4/cyfitter_cfg.c **** 			{0xA5u, 0x08u},
 379:Generated_Source\PSoC4/cyfitter_cfg.c **** 			{0xB1u, 0x08u},
 380:Generated_Source\PSoC4/cyfitter_cfg.c **** 			{0xB7u, 0x04u},
 381:Generated_Source\PSoC4/cyfitter_cfg.c **** 			{0xC0u, 0x40u},
 382:Generated_Source\PSoC4/cyfitter_cfg.c **** 			{0xC2u, 0xA0u},
 383:Generated_Source\PSoC4/cyfitter_cfg.c **** 			{0xC4u, 0x01u},
 384:Generated_Source\PSoC4/cyfitter_cfg.c **** 			{0xD6u, 0xF0u},
 385:Generated_Source\PSoC4/cyfitter_cfg.c **** 			{0xE2u, 0x40u},
 386:Generated_Source\PSoC4/cyfitter_cfg.c **** 			{0xE4u, 0x04u},
 387:Generated_Source\PSoC4/cyfitter_cfg.c **** 			{0xECu, 0x10u},
 388:Generated_Source\PSoC4/cyfitter_cfg.c **** 			{0xEEu, 0x20u},
 389:Generated_Source\PSoC4/cyfitter_cfg.c **** 			{0x09u, 0x12u},
 390:Generated_Source\PSoC4/cyfitter_cfg.c **** 			{0x5Fu, 0x20u},
 391:Generated_Source\PSoC4/cyfitter_cfg.c **** 			{0x67u, 0x40u},
 392:Generated_Source\PSoC4/cyfitter_cfg.c **** 			{0x81u, 0x10u},
 393:Generated_Source\PSoC4/cyfitter_cfg.c **** 			{0xC2u, 0x50u},
 394:Generated_Source\PSoC4/cyfitter_cfg.c **** 			{0xD6u, 0x20u},
 395:Generated_Source\PSoC4/cyfitter_cfg.c **** 			{0xD8u, 0x80u},
 396:Generated_Source\PSoC4/cyfitter_cfg.c **** 			{0xE0u, 0x80u},
ARM GAS  C:\Users\yura\AppData\Local\Temp\ccLd9Hgg.s 			page 14


 397:Generated_Source\PSoC4/cyfitter_cfg.c **** 			{0x56u, 0x02u},
 398:Generated_Source\PSoC4/cyfitter_cfg.c **** 			{0x87u, 0x40u},
 399:Generated_Source\PSoC4/cyfitter_cfg.c **** 			{0x8Eu, 0x02u},
 400:Generated_Source\PSoC4/cyfitter_cfg.c **** 			{0x97u, 0x40u},
 401:Generated_Source\PSoC4/cyfitter_cfg.c **** 			{0xB3u, 0x20u},
 402:Generated_Source\PSoC4/cyfitter_cfg.c **** 			{0xB5u, 0x02u},
 403:Generated_Source\PSoC4/cyfitter_cfg.c **** 			{0xD6u, 0x20u},
 404:Generated_Source\PSoC4/cyfitter_cfg.c **** 			{0xE6u, 0x40u},
 405:Generated_Source\PSoC4/cyfitter_cfg.c **** 			{0x0Au, 0x04u},
 406:Generated_Source\PSoC4/cyfitter_cfg.c **** 			{0x0Bu, 0x20u},
 407:Generated_Source\PSoC4/cyfitter_cfg.c **** 			{0x1Bu, 0x01u},
 408:Generated_Source\PSoC4/cyfitter_cfg.c **** 			{0x5Cu, 0x08u},
 409:Generated_Source\PSoC4/cyfitter_cfg.c **** 			{0x63u, 0x02u},
 410:Generated_Source\PSoC4/cyfitter_cfg.c **** 			{0x80u, 0x08u},
 411:Generated_Source\PSoC4/cyfitter_cfg.c **** 			{0x8Au, 0x04u},
 412:Generated_Source\PSoC4/cyfitter_cfg.c **** 			{0x8Bu, 0x10u},
 413:Generated_Source\PSoC4/cyfitter_cfg.c **** 			{0xC2u, 0x0Au},
 414:Generated_Source\PSoC4/cyfitter_cfg.c **** 			{0xC6u, 0x08u},
 415:Generated_Source\PSoC4/cyfitter_cfg.c **** 			{0xD6u, 0x03u},
 416:Generated_Source\PSoC4/cyfitter_cfg.c **** 			{0xE2u, 0x04u},
 417:Generated_Source\PSoC4/cyfitter_cfg.c **** 			{0xE6u, 0x04u},
 418:Generated_Source\PSoC4/cyfitter_cfg.c **** 		};
 419:Generated_Source\PSoC4/cyfitter_cfg.c **** 
 420:Generated_Source\PSoC4/cyfitter_cfg.c **** 
 421:Generated_Source\PSoC4/cyfitter_cfg.c **** 
 422:Generated_Source\PSoC4/cyfitter_cfg.c **** 		CYPACKED typedef struct {
 423:Generated_Source\PSoC4/cyfitter_cfg.c **** 			void CYFAR *address;
 424:Generated_Source\PSoC4/cyfitter_cfg.c **** 			uint16 size;
 425:Generated_Source\PSoC4/cyfitter_cfg.c **** 		} CYPACKED_ATTR cfg_memset_t;
 426:Generated_Source\PSoC4/cyfitter_cfg.c **** 
 427:Generated_Source\PSoC4/cyfitter_cfg.c **** 		static const cfg_memset_t CYCODE cfg_memset_list[] = {
 428:Generated_Source\PSoC4/cyfitter_cfg.c **** 			/* address, size */
 429:Generated_Source\PSoC4/cyfitter_cfg.c **** 			{(void CYFAR *)(CYDEV_UDB_P0_U0_BASE), 1024u},
 430:Generated_Source\PSoC4/cyfitter_cfg.c **** 			{(void CYFAR *)(CYDEV_UDB_DSI0_BASE), 1024u},
 431:Generated_Source\PSoC4/cyfitter_cfg.c **** 		};
 432:Generated_Source\PSoC4/cyfitter_cfg.c **** 
 433:Generated_Source\PSoC4/cyfitter_cfg.c **** 		uint8 CYDATA i;
 434:Generated_Source\PSoC4/cyfitter_cfg.c **** 
 435:Generated_Source\PSoC4/cyfitter_cfg.c **** 		/* Zero out critical memory blocks before beginning configuration */
 436:Generated_Source\PSoC4/cyfitter_cfg.c **** 		for (i = 0u; i < (sizeof(cfg_memset_list)/sizeof(cfg_memset_list[0])); i++)
 336              		.loc 1 436 0
 337 00ac 0024     		movs	r4, #0
 338 00ae 0FE0     		b	.L19
 339              	.LVL25:
 340              	.L20:
 341              	.LBB4:
 437:Generated_Source\PSoC4/cyfitter_cfg.c **** 		{
 438:Generated_Source\PSoC4/cyfitter_cfg.c **** 			const cfg_memset_t CYCODE * CYDATA ms = &cfg_memset_list[i];
 439:Generated_Source\PSoC4/cyfitter_cfg.c **** 			CYMEMZERO(ms->address, (size_t)(uint32)(ms->size));
 342              		.loc 1 439 0 discriminator 3
 343 00b0 3048     		ldr	r0, .L21
 344 00b2 6200     		lsls	r2, r4, #1
 345 00b4 1319     		adds	r3, r2, r4
 346 00b6 5900     		lsls	r1, r3, #1
 347 00b8 0B00     		movs	r3, r1
 348 00ba 4118     		adds	r1, r0, r1
 349 00bc 8988     		ldrh	r1, [r1, #4]
ARM GAS  C:\Users\yura\AppData\Local\Temp\ccLd9Hgg.s 			page 15


 350 00be 1A5A     		ldrh	r2, [r3, r0]
 351 00c0 C318     		adds	r3, r0, r3
 352 00c2 5888     		ldrh	r0, [r3, #2]
 353 00c4 0004     		lsls	r0, r0, #16
 354 00c6 1043     		orrs	r0, r2
 355 00c8 FFF7FEFF 		bl	CYMEMZERO
 356              	.LVL26:
 357              	.LBE4:
 436:Generated_Source\PSoC4/cyfitter_cfg.c **** 		{
 358              		.loc 1 436 0 discriminator 3
 359 00cc 0134     		adds	r4, r4, #1
 360              	.LVL27:
 361 00ce E4B2     		uxtb	r4, r4
 362              	.LVL28:
 363              	.L19:
 436:Generated_Source\PSoC4/cyfitter_cfg.c **** 		{
 364              		.loc 1 436 0 is_stmt 0 discriminator 1
 365 00d0 012C     		cmp	r4, #1
 366 00d2 EDD9     		bls	.L20
 440:Generated_Source\PSoC4/cyfitter_cfg.c **** 		}
 441:Generated_Source\PSoC4/cyfitter_cfg.c **** 
 442:Generated_Source\PSoC4/cyfitter_cfg.c **** 		cfg_write_bytes32(cy_cfg_addr_table, cy_cfg_data_table);
 367              		.loc 1 442 0 is_stmt 1
 368 00d4 2749     		ldr	r1, .L21
 369 00d6 0C31     		adds	r1, r1, #12
 370 00d8 2748     		ldr	r0, .L21+4
 371 00da 2430     		adds	r0, r0, #36
 372 00dc FFF7FEFF 		bl	cfg_write_bytes32
 373              	.LVL29:
 443:Generated_Source\PSoC4/cyfitter_cfg.c **** 
 444:Generated_Source\PSoC4/cyfitter_cfg.c **** 		/* HSIOM Starting address: CYDEV_HSIOM_BASE */
 445:Generated_Source\PSoC4/cyfitter_cfg.c **** 		CY_SET_REG32((void *)(CYDEV_HSIOM_BASE), 0x00300003u);
 374              		.loc 1 445 0
 375 00e0 264A     		ldr	r2, .L21+8
 376 00e2 274B     		ldr	r3, .L21+12
 377 00e4 1A60     		str	r2, [r3]
 446:Generated_Source\PSoC4/cyfitter_cfg.c **** 		CY_SET_REG32((void *)(CYREG_HSIOM_PORT_SEL1), 0x00000003u);
 378              		.loc 1 446 0
 379 00e6 0322     		movs	r2, #3
 380 00e8 264B     		ldr	r3, .L21+16
 381 00ea 1A60     		str	r2, [r3]
 447:Generated_Source\PSoC4/cyfitter_cfg.c **** 		CY_SET_REG32((void *)(CYREG_HSIOM_PORT_SEL3), 0x3030EEEEu);
 382              		.loc 1 447 0
 383 00ec 264A     		ldr	r2, .L21+20
 384 00ee 274B     		ldr	r3, .L21+24
 385 00f0 1A60     		str	r2, [r3]
 448:Generated_Source\PSoC4/cyfitter_cfg.c **** 
 449:Generated_Source\PSoC4/cyfitter_cfg.c **** 		/* UDB_PA_0 Starting address: CYDEV_UDB_PA0_BASE */
 450:Generated_Source\PSoC4/cyfitter_cfg.c **** 		CY_SET_REG32((void *)(CYDEV_UDB_PA0_BASE), 0x00990000u);
 386              		.loc 1 450 0
 387 00f2 9923     		movs	r3, #153
 388 00f4 1B04     		lsls	r3, r3, #16
 389 00f6 264A     		ldr	r2, .L21+28
 390 00f8 1360     		str	r3, [r2]
 451:Generated_Source\PSoC4/cyfitter_cfg.c **** 		CY_SET_REG32((void *)(CYREG_UDB_PA0_CFG8), 0x0C030000u);
 391              		.loc 1 451 0
 392 00fa 2649     		ldr	r1, .L21+32
ARM GAS  C:\Users\yura\AppData\Local\Temp\ccLd9Hgg.s 			page 16


 393 00fc 264A     		ldr	r2, .L21+36
 394 00fe 1160     		str	r1, [r2]
 452:Generated_Source\PSoC4/cyfitter_cfg.c **** 
 453:Generated_Source\PSoC4/cyfitter_cfg.c **** 		/* UDB_PA_1 Starting address: CYDEV_UDB_PA1_BASE */
 454:Generated_Source\PSoC4/cyfitter_cfg.c **** 		CY_SET_REG32((void *)(CYDEV_UDB_PA1_BASE), 0x00990000u);
 395              		.loc 1 454 0
 396 0100 264A     		ldr	r2, .L21+40
 397 0102 1360     		str	r3, [r2]
 455:Generated_Source\PSoC4/cyfitter_cfg.c **** 		CY_SET_REG32((void *)(CYREG_UDB_PA1_CFG8), 0x00030000u);
 398              		.loc 1 455 0
 399 0104 C021     		movs	r1, #192
 400 0106 8902     		lsls	r1, r1, #10
 401 0108 254A     		ldr	r2, .L21+44
 402 010a 1160     		str	r1, [r2]
 456:Generated_Source\PSoC4/cyfitter_cfg.c **** 
 457:Generated_Source\PSoC4/cyfitter_cfg.c **** 		/* UDB_PA_2 Starting address: CYDEV_UDB_PA2_BASE */
 458:Generated_Source\PSoC4/cyfitter_cfg.c **** 		CY_SET_REG32((void *)(CYDEV_UDB_PA2_BASE), 0x00990000u);
 403              		.loc 1 458 0
 404 010c 254A     		ldr	r2, .L21+48
 405 010e 1360     		str	r3, [r2]
 459:Generated_Source\PSoC4/cyfitter_cfg.c **** 
 460:Generated_Source\PSoC4/cyfitter_cfg.c **** 		/* UDB_PA_3 Starting address: CYDEV_UDB_PA3_BASE */
 461:Generated_Source\PSoC4/cyfitter_cfg.c **** 		CY_SET_REG32((void *)(CYDEV_UDB_PA3_BASE), 0x00990000u);
 406              		.loc 1 461 0
 407 0110 254A     		ldr	r2, .L21+52
 408 0112 1360     		str	r3, [r2]
 462:Generated_Source\PSoC4/cyfitter_cfg.c **** 		CY_SET_REG32((void *)(CYREG_UDB_PA3_CFG8), 0x62000000u);
 409              		.loc 1 462 0
 410 0114 C422     		movs	r2, #196
 411 0116 D205     		lsls	r2, r2, #23
 412 0118 244B     		ldr	r3, .L21+56
 413 011a 1A60     		str	r2, [r3]
 463:Generated_Source\PSoC4/cyfitter_cfg.c **** 
 464:Generated_Source\PSoC4/cyfitter_cfg.c **** 		/* Enable UDB array and digital routing */
 465:Generated_Source\PSoC4/cyfitter_cfg.c **** 		CY_SET_XTND_REG8((void *)CYREG_UDB_UDBIF_WAIT_CFG, (uint8)((CY_GET_XTND_REG8((void *)CYREG_UDB_UD
 414              		.loc 1 465 0
 415 011c 2449     		ldr	r1, .L21+60
 416 011e 0B78     		ldrb	r3, [r1]
 417 0120 3C22     		movs	r2, #60
 418 0122 9343     		bics	r3, r2
 419 0124 1422     		movs	r2, #20
 420 0126 1343     		orrs	r3, r2
 421 0128 DBB2     		uxtb	r3, r3
 422 012a 0B70     		strb	r3, [r1]
 466:Generated_Source\PSoC4/cyfitter_cfg.c **** 		CY_SET_XTND_REG8((void *)CYREG_UDB_UDBIF_BANK_CTL, (uint8)(CY_GET_XTND_REG8((void *)CYREG_UDB_UDB
 423              		.loc 1 466 0
 424 012c 214A     		ldr	r2, .L21+64
 425 012e 1178     		ldrb	r1, [r2]
 426 0130 1623     		movs	r3, #22
 427 0132 0B43     		orrs	r3, r1
 428 0134 DBB2     		uxtb	r3, r3
 429 0136 1370     		strb	r3, [r2]
 430              	.LBE3:
 467:Generated_Source\PSoC4/cyfitter_cfg.c **** 	}
 468:Generated_Source\PSoC4/cyfitter_cfg.c **** 
 469:Generated_Source\PSoC4/cyfitter_cfg.c **** 	/* Perform second pass device configuration. These items must be configured in specific order afte
 470:Generated_Source\PSoC4/cyfitter_cfg.c **** 	/* IOPINS0_0 Starting address: CYDEV_PRT0_BASE */
ARM GAS  C:\Users\yura\AppData\Local\Temp\ccLd9Hgg.s 			page 17


 471:Generated_Source\PSoC4/cyfitter_cfg.c **** 	CY_SET_REG32((void *)(CYDEV_PRT0_BASE), 0x000000F1u);
 431              		.loc 1 471 0
 432 0138 F122     		movs	r2, #241
 433 013a 1F4B     		ldr	r3, .L21+68
 434 013c 1A60     		str	r2, [r3]
 472:Generated_Source\PSoC4/cyfitter_cfg.c **** 	CY_SET_REG32((void *)(CYREG_PRT0_PC), 0x004B2006u);
 435              		.loc 1 472 0
 436 013e 1F4A     		ldr	r2, .L21+72
 437 0140 1F4B     		ldr	r3, .L21+76
 438 0142 1A60     		str	r2, [r3]
 473:Generated_Source\PSoC4/cyfitter_cfg.c **** 
 474:Generated_Source\PSoC4/cyfitter_cfg.c **** 	/* IOPINS0_1 Starting address: CYDEV_PRT1_BASE */
 475:Generated_Source\PSoC4/cyfitter_cfg.c **** 	CY_SET_REG32((void *)(CYDEV_PRT1_BASE), 0x00000001u);
 439              		.loc 1 475 0
 440 0144 0123     		movs	r3, #1
 441 0146 1F4A     		ldr	r2, .L21+80
 442 0148 1360     		str	r3, [r2]
 476:Generated_Source\PSoC4/cyfitter_cfg.c **** 	CY_SET_REG32((void *)(CYREG_PRT1_PC), 0x00000006u);
 443              		.loc 1 476 0
 444 014a 0621     		movs	r1, #6
 445 014c 1E4A     		ldr	r2, .L21+84
 446 014e 1160     		str	r1, [r2]
 477:Generated_Source\PSoC4/cyfitter_cfg.c **** 
 478:Generated_Source\PSoC4/cyfitter_cfg.c **** 	/* IOPINS0_2 Starting address: CYDEV_PRT2_BASE */
 479:Generated_Source\PSoC4/cyfitter_cfg.c **** 	CY_SET_REG32((void *)(CYDEV_PRT2_BASE), 0x00000001u);
 447              		.loc 1 479 0
 448 0150 1E4A     		ldr	r2, .L21+88
 449 0152 1360     		str	r3, [r2]
 480:Generated_Source\PSoC4/cyfitter_cfg.c **** 	CY_SET_REG32((void *)(CYREG_PRT2_PC), 0x00DB6DB0u);
 450              		.loc 1 480 0
 451 0154 1E49     		ldr	r1, .L21+92
 452 0156 1F4A     		ldr	r2, .L21+96
 453 0158 1160     		str	r1, [r2]
 481:Generated_Source\PSoC4/cyfitter_cfg.c **** 	CY_SET_REG32((void *)(CYREG_PRT2_PC2), 0x00000001u);
 454              		.loc 1 481 0
 455 015a 1F4A     		ldr	r2, .L21+100
 456 015c 1360     		str	r3, [r2]
 482:Generated_Source\PSoC4/cyfitter_cfg.c **** 
 483:Generated_Source\PSoC4/cyfitter_cfg.c **** 	/* IOPINS0_3 Starting address: CYDEV_PRT3_BASE */
 484:Generated_Source\PSoC4/cyfitter_cfg.c **** 	CY_SET_REG32((void *)(CYDEV_PRT3_BASE), 0x000000F3u);
 457              		.loc 1 484 0
 458 015e F322     		movs	r2, #243
 459 0160 1E4B     		ldr	r3, .L21+104
 460 0162 1A60     		str	r2, [r3]
 485:Generated_Source\PSoC4/cyfitter_cfg.c **** 	CY_SET_REG32((void *)(CYREG_PRT3_PC), 0x00CB2DA4u);
 461              		.loc 1 485 0
 462 0164 1E4A     		ldr	r2, .L21+108
 463 0166 1F4B     		ldr	r3, .L21+112
 464 0168 1A60     		str	r2, [r3]
 486:Generated_Source\PSoC4/cyfitter_cfg.c **** 
 487:Generated_Source\PSoC4/cyfitter_cfg.c **** 
 488:Generated_Source\PSoC4/cyfitter_cfg.c **** 	/* Setup clocks based on selections from Clock DWR */
 489:Generated_Source\PSoC4/cyfitter_cfg.c **** 	ClockSetup();
 465              		.loc 1 489 0
 466 016a FFF749FF 		bl	ClockSetup
 467              	.LVL30:
 490:Generated_Source\PSoC4/cyfitter_cfg.c **** 
ARM GAS  C:\Users\yura\AppData\Local\Temp\ccLd9Hgg.s 			page 18


 491:Generated_Source\PSoC4/cyfitter_cfg.c **** 	/* Perform basic analog initialization to defaults */
 492:Generated_Source\PSoC4/cyfitter_cfg.c **** 	AnalogSetDefault();
 468              		.loc 1 492 0
 469 016e FFF7FEFF 		bl	AnalogSetDefault
 470              	.LVL31:
 493:Generated_Source\PSoC4/cyfitter_cfg.c **** 
 494:Generated_Source\PSoC4/cyfitter_cfg.c **** }
 471              		.loc 1 494 0
 472              		@ sp needed
 473              	.LVL32:
 474 0172 10BD     		pop	{r4, pc}
 475              	.L22:
 476              		.align	2
 477              	.L21:
 478 0174 00000000 		.word	.LANCHOR0
 479 0178 80000000 		.word	.LANCHOR1
 480 017c 03003000 		.word	3145731
 481 0180 00000140 		.word	1073807360
 482 0184 04000140 		.word	1073807364
 483 0188 EEEE3030 		.word	808513262
 484 018c 0C000140 		.word	1073807372
 485 0190 00500F40 		.word	1074745344
 486 0194 0000030C 		.word	201523200
 487 0198 08500F40 		.word	1074745352
 488 019c 10500F40 		.word	1074745360
 489 01a0 18500F40 		.word	1074745368
 490 01a4 20500F40 		.word	1074745376
 491 01a8 30500F40 		.word	1074745392
 492 01ac 38500F40 		.word	1074745400
 493 01b0 01700F40 		.word	1074753537
 494 01b4 00700F40 		.word	1074753536
 495 01b8 00000440 		.word	1074003968
 496 01bc 06204B00 		.word	4923398
 497 01c0 08000440 		.word	1074003976
 498 01c4 00010440 		.word	1074004224
 499 01c8 08010440 		.word	1074004232
 500 01cc 00020440 		.word	1074004480
 501 01d0 B06DDB00 		.word	14380464
 502 01d4 08020440 		.word	1074004488
 503 01d8 18020440 		.word	1074004504
 504 01dc 00030440 		.word	1074004736
 505 01e0 A42DCB00 		.word	13315492
 506 01e4 08030440 		.word	1074004744
 507              		.cfi_endproc
 508              	.LFE7:
 509              		.size	cyfitter_cfg, .-cyfitter_cfg
 510              		.section	.rodata
 511              		.align	2
 512              		.set	.LANCHOR0,. + 0
 513              		.set	.LANCHOR1,. + 128
 514              		.type	cfg_memset_list.4876, %object
 515              		.size	cfg_memset_list.4876, 12
 516              	cfg_memset_list.4876:
 517 0000 00300F40 		.word	1074737152
 518 0004 0004     		.short	1024
 519 0006 00400F40 		.4byte	1074741248
 520 000a 0004     		.short	1024
ARM GAS  C:\Users\yura\AppData\Local\Temp\ccLd9Hgg.s 			page 19


 521              		.type	cy_cfg_data_table.4871, %object
 522              		.size	cy_cfg_data_table.4871, 150
 523              	cy_cfg_data_table.4871:
 524 000c 82       		.byte	-126
 525 000d 10       		.byte	16
 526 000e 08       		.byte	8
 527 000f 01       		.byte	1
 528 0010 14       		.byte	20
 529 0011 04       		.byte	4
 530 0012 1C       		.byte	28
 531 0013 02       		.byte	2
 532 0014 30       		.byte	48
 533 0015 04       		.byte	4
 534 0016 32       		.byte	50
 535 0017 02       		.byte	2
 536 0018 34       		.byte	52
 537 0019 01       		.byte	1
 538 001a 3E       		.byte	62
 539 001b 15       		.byte	21
 540 001c 58       		.byte	88
 541 001d 04       		.byte	4
 542 001e 5B       		.byte	91
 543 001f 04       		.byte	4
 544 0020 5F       		.byte	95
 545 0021 01       		.byte	1
 546 0022 AC       		.byte	-84
 547 0023 01       		.byte	1
 548 0024 B2       		.byte	-78
 549 0025 01       		.byte	1
 550 0026 BE       		.byte	-66
 551 0027 04       		.byte	4
 552 0028 D8       		.byte	-40
 553 0029 04       		.byte	4
 554 002a DF       		.byte	-33
 555 002b 01       		.byte	1
 556 002c 07       		.byte	7
 557 002d 04       		.byte	4
 558 002e 0D       		.byte	13
 559 002f 80       		.byte	-128
 560 0030 0E       		.byte	14
 561 0031 10       		.byte	16
 562 0032 10       		.byte	16
 563 0033 01       		.byte	1
 564 0034 19       		.byte	25
 565 0035 08       		.byte	8
 566 0036 1A       		.byte	26
 567 0037 20       		.byte	32
 568 0038 1C       		.byte	28
 569 0039 50       		.byte	80
 570 003a 1D       		.byte	29
 571 003b 08       		.byte	8
 572 003c 1F       		.byte	31
 573 003d 11       		.byte	17
 574 003e 5C       		.byte	92
 575 003f 50       		.byte	80
 576 0040 5D       		.byte	93
 577 0041 08       		.byte	8
ARM GAS  C:\Users\yura\AppData\Local\Temp\ccLd9Hgg.s 			page 20


 578 0042 5F       		.byte	95
 579 0043 02       		.byte	2
 580 0044 82       		.byte	-126
 581 0045 10       		.byte	16
 582 0046 87       		.byte	-121
 583 0047 12       		.byte	18
 584 0048 88       		.byte	-120
 585 0049 01       		.byte	1
 586 004a 89       		.byte	-119
 587 004b 80       		.byte	-128
 588 004c 8F       		.byte	-113
 589 004d 01       		.byte	1
 590 004e 92       		.byte	-110
 591 004f 10       		.byte	16
 592 0050 9B       		.byte	-101
 593 0051 04       		.byte	4
 594 0052 A5       		.byte	-91
 595 0053 08       		.byte	8
 596 0054 B1       		.byte	-79
 597 0055 08       		.byte	8
 598 0056 B7       		.byte	-73
 599 0057 04       		.byte	4
 600 0058 C0       		.byte	-64
 601 0059 40       		.byte	64
 602 005a C2       		.byte	-62
 603 005b A0       		.byte	-96
 604 005c C4       		.byte	-60
 605 005d 01       		.byte	1
 606 005e D6       		.byte	-42
 607 005f F0       		.byte	-16
 608 0060 E2       		.byte	-30
 609 0061 40       		.byte	64
 610 0062 E4       		.byte	-28
 611 0063 04       		.byte	4
 612 0064 EC       		.byte	-20
 613 0065 10       		.byte	16
 614 0066 EE       		.byte	-18
 615 0067 20       		.byte	32
 616 0068 09       		.byte	9
 617 0069 12       		.byte	18
 618 006a 5F       		.byte	95
 619 006b 20       		.byte	32
 620 006c 67       		.byte	103
 621 006d 40       		.byte	64
 622 006e 81       		.byte	-127
 623 006f 10       		.byte	16
 624 0070 C2       		.byte	-62
 625 0071 50       		.byte	80
 626 0072 D6       		.byte	-42
 627 0073 20       		.byte	32
 628 0074 D8       		.byte	-40
 629 0075 80       		.byte	-128
 630 0076 E0       		.byte	-32
 631 0077 80       		.byte	-128
 632 0078 56       		.byte	86
 633 0079 02       		.byte	2
 634 007a 87       		.byte	-121
ARM GAS  C:\Users\yura\AppData\Local\Temp\ccLd9Hgg.s 			page 21


 635 007b 40       		.byte	64
 636 007c 8E       		.byte	-114
 637 007d 02       		.byte	2
 638 007e 97       		.byte	-105
 639 007f 40       		.byte	64
 640 0080 B3       		.byte	-77
 641 0081 20       		.byte	32
 642 0082 B5       		.byte	-75
 643 0083 02       		.byte	2
 644 0084 D6       		.byte	-42
 645 0085 20       		.byte	32
 646 0086 E6       		.byte	-26
 647 0087 40       		.byte	64
 648 0088 0A       		.byte	10
 649 0089 04       		.byte	4
 650 008a 0B       		.byte	11
 651 008b 20       		.byte	32
 652 008c 1B       		.byte	27
 653 008d 01       		.byte	1
 654 008e 5C       		.byte	92
 655 008f 08       		.byte	8
 656 0090 63       		.byte	99
 657 0091 02       		.byte	2
 658 0092 80       		.byte	-128
 659 0093 08       		.byte	8
 660 0094 8A       		.byte	-118
 661 0095 04       		.byte	4
 662 0096 8B       		.byte	-117
 663 0097 10       		.byte	16
 664 0098 C2       		.byte	-62
 665 0099 0A       		.byte	10
 666 009a C6       		.byte	-58
 667 009b 08       		.byte	8
 668 009c D6       		.byte	-42
 669 009d 03       		.byte	3
 670 009e E2       		.byte	-30
 671 009f 04       		.byte	4
 672 00a0 E6       		.byte	-26
 673 00a1 04       		.byte	4
 674 00a2 0000     		.space	2
 675              		.type	cy_cfg_addr_table.4870, %object
 676              		.size	cy_cfg_addr_table.4870, 24
 677              	cy_cfg_addr_table.4870:
 678 00a4 01310F40 		.word	1074737409
 679 00a8 0F320F40 		.word	1074737679
 680 00ac 1E330F40 		.word	1074737950
 681 00b0 08400F40 		.word	1074741256
 682 00b4 08410F40 		.word	1074741512
 683 00b8 0D430F40 		.word	1074742029
 684              		.text
 685              	.Letext0:
 686              		.file 2 "c:\\program files (x86)\\cypress\\psoc creator\\4.4\\psoc creator\\import\\gnu\\arm\\5.4.
 687              		.file 3 "Generated_Source\\PSoC4\\cytypes.h"
 688              		.file 4 "Generated_Source\\PSoC4\\CyLib.h"