ARM GAS  C:\Users\yura\AppData\Local\Temp\ccdecsYX.s 			page 1


   1              		.syntax unified
   2              		.cpu cortex-m0
   3              		.fpu softvfp
   4              		.eabi_attribute 20, 1
   5              		.eabi_attribute 21, 1
   6              		.eabi_attribute 23, 3
   7              		.eabi_attribute 24, 1
   8              		.eabi_attribute 25, 1
   9              		.eabi_attribute 26, 1
  10              		.eabi_attribute 30, 1
  11              		.eabi_attribute 34, 0
  12              		.eabi_attribute 18, 4
  13              		.thumb
  14              		.syntax unified
  15              		.file	"main.c"
  16              		.text
  17              	.Ltext0:
  18              		.cfi_sections	.debug_frame
  19              		.section	.text.Buzz_Play_SuccesMelody,"ax",%progbits
  20              		.align	2
  21              		.global	Buzz_Play_SuccesMelody
  22              		.code	16
  23              		.thumb_func
  24              		.type	Buzz_Play_SuccesMelody, %function
  25              	Buzz_Play_SuccesMelody:
  26              	.LFB32:
  27              		.file 1 "main.c"
   1:main.c        **** #include <project.h>
   2:main.c        **** #define INIT_STATE (0X40)
   3:main.c        **** #define PASS_STATE (0X20)
   4:main.c        **** #define FAIL_STATE (0X10)
   5:main.c        **** 
   6:main.c        **** #define POT_CHAN (0)
   7:main.c        **** #define WRITABLE (3)
   8:main.c        **** 
   9:main.c        **** #define Buzz_C (3824)
  10:main.c        **** #define Buzz_G (2552)
  11:main.c        **** #define Buzz_A (2272)
  12:main.c        **** #define Buzz_D (3408)
  13:main.c        **** #define Buzz_F (2865)
  14:main.c        **** #define Buzz_E (3034)
  15:main.c        **** 
  16:main.c        **** #define Buzz_Delay (200)
  17:main.c        **** 
  18:main.c        **** 
  19:main.c        **** 
  20:main.c        **** void Buzz_Play_SuccesMelody(void) // Перемога
  21:main.c        **** {
  28              		.loc 1 21 0
  29              		.cfi_startproc
  30              		@ args = 0, pretend = 0, frame = 0
  31              		@ frame_needed = 0, uses_anonymous_args = 0
  32 0000 F8B5     		push	{r3, r4, r5, r6, r7, lr}
  33              		.cfi_def_cfa_offset 24
  34              		.cfi_offset 3, -24
  35              		.cfi_offset 4, -20
  36              		.cfi_offset 5, -16
ARM GAS  C:\Users\yura\AppData\Local\Temp\ccdecsYX.s 			page 2


  37              		.cfi_offset 6, -12
  38              		.cfi_offset 7, -8
  39              		.cfi_offset 14, -4
  22:main.c        ****     Buzz_PWM_Wakeup();
  40              		.loc 1 22 0
  41 0002 FFF7FEFF 		bl	Buzz_PWM_Wakeup
  42              	.LVL0:
  23:main.c        ****     //C
  24:main.c        ****     Buzz_PWM_WritePeriod(Buzz_C);
  43              		.loc 1 24 0
  44 0006 EF27     		movs	r7, #239
  45 0008 3F01     		lsls	r7, r7, #4
  46 000a 3800     		movs	r0, r7
  47 000c FFF7FEFF 		bl	Buzz_PWM_WritePeriod
  48              	.LVL1:
  25:main.c        ****     Buzz_PWM_WriteCompare(Buzz_C/2);
  49              		.loc 1 25 0
  50 0010 EF26     		movs	r6, #239
  51 0012 F600     		lsls	r6, r6, #3
  52 0014 3000     		movs	r0, r6
  53 0016 FFF7FEFF 		bl	Buzz_PWM_WriteCompare
  54              	.LVL2:
  26:main.c        ****     CyDelay(Buzz_Delay);
  55              		.loc 1 26 0
  56 001a C820     		movs	r0, #200
  57 001c FFF7FEFF 		bl	CyDelay
  58              	.LVL3:
  27:main.c        ****     
  28:main.c        ****     //G
  29:main.c        ****     Buzz_PWM_WritePeriod(Buzz_G);
  59              		.loc 1 29 0
  60 0020 234D     		ldr	r5, .L2
  61 0022 2800     		movs	r0, r5
  62 0024 FFF7FEFF 		bl	Buzz_PWM_WritePeriod
  63              	.LVL4:
  30:main.c        ****     Buzz_PWM_WriteCompare(Buzz_G/2);
  64              		.loc 1 30 0
  65 0028 224C     		ldr	r4, .L2+4
  66 002a 2000     		movs	r0, r4
  67 002c FFF7FEFF 		bl	Buzz_PWM_WriteCompare
  68              	.LVL5:
  31:main.c        ****     CyDelay(Buzz_Delay);
  69              		.loc 1 31 0
  70 0030 C820     		movs	r0, #200
  71 0032 FFF7FEFF 		bl	CyDelay
  72              	.LVL6:
  32:main.c        ****     
  33:main.c        ****     //A
  34:main.c        ****     Buzz_PWM_WritePeriod(Buzz_A);
  73              		.loc 1 34 0
  74 0036 8E20     		movs	r0, #142
  75 0038 0001     		lsls	r0, r0, #4
  76 003a FFF7FEFF 		bl	Buzz_PWM_WritePeriod
  77              	.LVL7:
  35:main.c        ****     Buzz_PWM_WriteCompare(Buzz_A/2);
  78              		.loc 1 35 0
  79 003e 8E20     		movs	r0, #142
ARM GAS  C:\Users\yura\AppData\Local\Temp\ccdecsYX.s 			page 3


  80 0040 C000     		lsls	r0, r0, #3
  81 0042 FFF7FEFF 		bl	Buzz_PWM_WriteCompare
  82              	.LVL8:
  36:main.c        ****     CyDelay(Buzz_Delay);
  83              		.loc 1 36 0
  84 0046 C820     		movs	r0, #200
  85 0048 FFF7FEFF 		bl	CyDelay
  86              	.LVL9:
  37:main.c        ****     
  38:main.c        ****     //G
  39:main.c        ****     Buzz_PWM_WritePeriod(Buzz_G);
  87              		.loc 1 39 0
  88 004c 2800     		movs	r0, r5
  89 004e FFF7FEFF 		bl	Buzz_PWM_WritePeriod
  90              	.LVL10:
  40:main.c        ****     Buzz_PWM_WriteCompare(Buzz_G/2);
  91              		.loc 1 40 0
  92 0052 2000     		movs	r0, r4
  93 0054 FFF7FEFF 		bl	Buzz_PWM_WriteCompare
  94              	.LVL11:
  41:main.c        ****     CyDelay(Buzz_Delay);
  95              		.loc 1 41 0
  96 0058 C820     		movs	r0, #200
  97 005a FFF7FEFF 		bl	CyDelay
  98              	.LVL12:
  42:main.c        ****     
  43:main.c        ****     //C
  44:main.c        ****     Buzz_PWM_WritePeriod(Buzz_C);
  99              		.loc 1 44 0
 100 005e 3800     		movs	r0, r7
 101 0060 FFF7FEFF 		bl	Buzz_PWM_WritePeriod
 102              	.LVL13:
  45:main.c        ****     Buzz_PWM_WriteCompare(Buzz_C/2);
 103              		.loc 1 45 0
 104 0064 3000     		movs	r0, r6
 105 0066 FFF7FEFF 		bl	Buzz_PWM_WriteCompare
 106              	.LVL14:
  46:main.c        ****     CyDelay(Buzz_Delay);
 107              		.loc 1 46 0
 108 006a C820     		movs	r0, #200
 109 006c FFF7FEFF 		bl	CyDelay
 110              	.LVL15:
  47:main.c        ****     
  48:main.c        ****     //G
  49:main.c        ****     Buzz_PWM_WritePeriod(Buzz_G);
 111              		.loc 1 49 0
 112 0070 2800     		movs	r0, r5
 113 0072 FFF7FEFF 		bl	Buzz_PWM_WritePeriod
 114              	.LVL16:
  50:main.c        ****     Buzz_PWM_WriteCompare(Buzz_G/2);
 115              		.loc 1 50 0
 116 0076 2000     		movs	r0, r4
 117 0078 FFF7FEFF 		bl	Buzz_PWM_WriteCompare
 118              	.LVL17:
  51:main.c        ****     CyDelay(Buzz_Delay);
 119              		.loc 1 51 0
 120 007c C820     		movs	r0, #200
ARM GAS  C:\Users\yura\AppData\Local\Temp\ccdecsYX.s 			page 4


 121 007e FFF7FEFF 		bl	CyDelay
 122              	.LVL18:
  52:main.c        ****     
  53:main.c        ****     //A
  54:main.c        ****     Buzz_PWM_WritePeriod(Buzz_A);
 123              		.loc 1 54 0
 124 0082 8E20     		movs	r0, #142
 125 0084 0001     		lsls	r0, r0, #4
 126 0086 FFF7FEFF 		bl	Buzz_PWM_WritePeriod
 127              	.LVL19:
  55:main.c        ****     Buzz_PWM_WriteCompare(Buzz_A/2);
 128              		.loc 1 55 0
 129 008a 8E20     		movs	r0, #142
 130 008c C000     		lsls	r0, r0, #3
 131 008e FFF7FEFF 		bl	Buzz_PWM_WriteCompare
 132              	.LVL20:
  56:main.c        ****     CyDelay(Buzz_Delay);
 133              		.loc 1 56 0
 134 0092 C820     		movs	r0, #200
 135 0094 FFF7FEFF 		bl	CyDelay
 136              	.LVL21:
  57:main.c        ****     
  58:main.c        ****     //G
  59:main.c        ****     Buzz_PWM_WritePeriod(Buzz_G);
 137              		.loc 1 59 0
 138 0098 2800     		movs	r0, r5
 139 009a FFF7FEFF 		bl	Buzz_PWM_WritePeriod
 140              	.LVL22:
  60:main.c        ****     Buzz_PWM_WriteCompare(Buzz_G/2);
 141              		.loc 1 60 0
 142 009e 2000     		movs	r0, r4
 143 00a0 FFF7FEFF 		bl	Buzz_PWM_WriteCompare
 144              	.LVL23:
  61:main.c        ****     CyDelay(Buzz_Delay);
 145              		.loc 1 61 0
 146 00a4 C820     		movs	r0, #200
 147 00a6 FFF7FEFF 		bl	CyDelay
 148              	.LVL24:
  62:main.c        ****     
  63:main.c        ****     Buzz_PWM_Sleep();
 149              		.loc 1 63 0
 150 00aa FFF7FEFF 		bl	Buzz_PWM_Sleep
 151              	.LVL25:
  64:main.c        **** }
 152              		.loc 1 64 0
 153              		@ sp needed
 154 00ae F8BD     		pop	{r3, r4, r5, r6, r7, pc}
 155              	.L3:
 156              		.align	2
 157              	.L2:
 158 00b0 F8090000 		.word	2552
 159 00b4 FC040000 		.word	1276
 160              		.cfi_endproc
 161              	.LFE32:
 162              		.size	Buzz_Play_SuccesMelody, .-Buzz_Play_SuccesMelody
 163              		.section	.text.Buzz_Play_DefMelody,"ax",%progbits
 164              		.align	2
ARM GAS  C:\Users\yura\AppData\Local\Temp\ccdecsYX.s 			page 5


 165              		.global	Buzz_Play_DefMelody
 166              		.code	16
 167              		.thumb_func
 168              		.type	Buzz_Play_DefMelody, %function
 169              	Buzz_Play_DefMelody:
 170              	.LFB33:
  65:main.c        **** 
  66:main.c        **** void Buzz_Play_DefMelody(void) //Програш
  67:main.c        **** {
 171              		.loc 1 67 0
 172              		.cfi_startproc
 173              		@ args = 0, pretend = 0, frame = 0
 174              		@ frame_needed = 0, uses_anonymous_args = 0
 175 0000 70B5     		push	{r4, r5, r6, lr}
 176              		.cfi_def_cfa_offset 16
 177              		.cfi_offset 4, -16
 178              		.cfi_offset 5, -12
 179              		.cfi_offset 6, -8
 180              		.cfi_offset 14, -4
  68:main.c        ****     Buzz_PWM_Wakeup();
 181              		.loc 1 68 0
 182 0002 FFF7FEFF 		bl	Buzz_PWM_Wakeup
 183              	.LVL26:
  69:main.c        ****     
  70:main.c        ****     //D
  71:main.c        ****     Buzz_PWM_WritePeriod(Buzz_D);
 184              		.loc 1 71 0
 185 0006 D525     		movs	r5, #213
 186 0008 2D01     		lsls	r5, r5, #4
 187 000a 2800     		movs	r0, r5
 188 000c FFF7FEFF 		bl	Buzz_PWM_WritePeriod
 189              	.LVL27:
  72:main.c        ****     Buzz_PWM_WriteCompare(Buzz_D/2);
 190              		.loc 1 72 0
 191 0010 D524     		movs	r4, #213
 192 0012 E400     		lsls	r4, r4, #3
 193 0014 2000     		movs	r0, r4
 194 0016 FFF7FEFF 		bl	Buzz_PWM_WriteCompare
 195              	.LVL28:
  73:main.c        ****     CyDelay(Buzz_Delay + 300);
 196              		.loc 1 73 0
 197 001a FA26     		movs	r6, #250
 198 001c 7600     		lsls	r6, r6, #1
 199 001e 3000     		movs	r0, r6
 200 0020 FFF7FEFF 		bl	CyDelay
 201              	.LVL29:
  74:main.c        ****     
  75:main.c        ****     //OffBuzz
  76:main.c        ****     Buzz_PWM_Sleep();
 202              		.loc 1 76 0
 203 0024 FFF7FEFF 		bl	Buzz_PWM_Sleep
 204              	.LVL30:
  77:main.c        ****     CyDelay(Buzz_Delay / 2);
 205              		.loc 1 77 0
 206 0028 6420     		movs	r0, #100
 207 002a FFF7FEFF 		bl	CyDelay
 208              	.LVL31:
ARM GAS  C:\Users\yura\AppData\Local\Temp\ccdecsYX.s 			page 6


  78:main.c        ****     Buzz_PWM_Wakeup();    
 209              		.loc 1 78 0
 210 002e FFF7FEFF 		bl	Buzz_PWM_Wakeup
 211              	.LVL32:
  79:main.c        ****     
  80:main.c        ****     //D
  81:main.c        ****     Buzz_PWM_WritePeriod(Buzz_D);
 212              		.loc 1 81 0
 213 0032 2800     		movs	r0, r5
 214 0034 FFF7FEFF 		bl	Buzz_PWM_WritePeriod
 215              	.LVL33:
  82:main.c        ****     Buzz_PWM_WriteCompare(Buzz_D/2);
 216              		.loc 1 82 0
 217 0038 2000     		movs	r0, r4
 218 003a FFF7FEFF 		bl	Buzz_PWM_WriteCompare
 219              	.LVL34:
  83:main.c        ****     CyDelay(Buzz_Delay + 300);
 220              		.loc 1 83 0
 221 003e 3000     		movs	r0, r6
 222 0040 FFF7FEFF 		bl	CyDelay
 223              	.LVL35:
  84:main.c        ****     
  85:main.c        ****     //OffBuzz
  86:main.c        ****     Buzz_PWM_Sleep();
 224              		.loc 1 86 0
 225 0044 FFF7FEFF 		bl	Buzz_PWM_Sleep
 226              	.LVL36:
  87:main.c        ****     CyDelay(Buzz_Delay / 2);
 227              		.loc 1 87 0
 228 0048 6420     		movs	r0, #100
 229 004a FFF7FEFF 		bl	CyDelay
 230              	.LVL37:
  88:main.c        ****     Buzz_PWM_Wakeup();
 231              		.loc 1 88 0
 232 004e FFF7FEFF 		bl	Buzz_PWM_Wakeup
 233              	.LVL38:
  89:main.c        ****     
  90:main.c        ****     //D
  91:main.c        ****     Buzz_PWM_WritePeriod(Buzz_D);
 234              		.loc 1 91 0
 235 0052 2800     		movs	r0, r5
 236 0054 FFF7FEFF 		bl	Buzz_PWM_WritePeriod
 237              	.LVL39:
  92:main.c        ****     Buzz_PWM_WriteCompare(Buzz_D/2);
 238              		.loc 1 92 0
 239 0058 2000     		movs	r0, r4
 240 005a FFF7FEFF 		bl	Buzz_PWM_WriteCompare
 241              	.LVL40:
  93:main.c        ****     CyDelay(Buzz_Delay + 1000);
 242              		.loc 1 93 0
 243 005e 9620     		movs	r0, #150
 244 0060 C000     		lsls	r0, r0, #3
 245 0062 FFF7FEFF 		bl	CyDelay
 246              	.LVL41:
  94:main.c        ****     
  95:main.c        ****     Buzz_PWM_Sleep();
 247              		.loc 1 95 0
ARM GAS  C:\Users\yura\AppData\Local\Temp\ccdecsYX.s 			page 7


 248 0066 FFF7FEFF 		bl	Buzz_PWM_Sleep
 249              	.LVL42:
  96:main.c        **** }
 250              		.loc 1 96 0
 251              		@ sp needed
 252 006a 70BD     		pop	{r4, r5, r6, pc}
 253              		.cfi_endproc
 254              	.LFE33:
 255              		.size	Buzz_Play_DefMelody, .-Buzz_Play_DefMelody
 256              		.section	.text.Buzz_Play_ButtMelody,"ax",%progbits
 257              		.align	2
 258              		.global	Buzz_Play_ButtMelody
 259              		.code	16
 260              		.thumb_func
 261              		.type	Buzz_Play_ButtMelody, %function
 262              	Buzz_Play_ButtMelody:
 263              	.LFB34:
  97:main.c        **** 
  98:main.c        **** void Buzz_Play_ButtMelody(int RegButt) //Програш
  99:main.c        **** {
 264              		.loc 1 99 0
 265              		.cfi_startproc
 266              		@ args = 0, pretend = 0, frame = 0
 267              		@ frame_needed = 0, uses_anonymous_args = 0
 268              	.LVL43:
 269 0000 10B5     		push	{r4, lr}
 270              		.cfi_def_cfa_offset 8
 271              		.cfi_offset 4, -8
 272              		.cfi_offset 14, -4
 273 0002 0400     		movs	r4, r0
 100:main.c        ****     Buzz_PWM_Wakeup();
 274              		.loc 1 100 0
 275 0004 FFF7FEFF 		bl	Buzz_PWM_Wakeup
 276              	.LVL44:
 101:main.c        ****     
 102:main.c        ****     switch(RegButt)
 277              		.loc 1 102 0
 278 0008 022C     		cmp	r4, #2
 279 000a 14D0     		beq	.L7
 280 000c 02DC     		bgt	.L8
 281 000e 012C     		cmp	r4, #1
 282 0010 05D0     		beq	.L9
 283 0012 32E0     		b	.L6
 284              	.L8:
 285 0014 042C     		cmp	r4, #4
 286 0016 19D0     		beq	.L10
 287 0018 082C     		cmp	r4, #8
 288 001a 23D0     		beq	.L11
 289 001c 2DE0     		b	.L6
 290              	.L9:
 103:main.c        ****     {        
 104:main.c        ****         case(0x1):
 105:main.c        ****             //D
 106:main.c        ****             Buzz_PWM_WritePeriod(Buzz_D);
 291              		.loc 1 106 0
 292 001e D520     		movs	r0, #213
 293 0020 0001     		lsls	r0, r0, #4
ARM GAS  C:\Users\yura\AppData\Local\Temp\ccdecsYX.s 			page 8


 294 0022 FFF7FEFF 		bl	Buzz_PWM_WritePeriod
 295              	.LVL45:
 107:main.c        ****             Buzz_PWM_WriteCompare(Buzz_D/2);
 296              		.loc 1 107 0
 297 0026 D520     		movs	r0, #213
 298 0028 C000     		lsls	r0, r0, #3
 299 002a FFF7FEFF 		bl	Buzz_PWM_WriteCompare
 300              	.LVL46:
 108:main.c        ****             CyDelay(Buzz_Delay / 4);
 301              		.loc 1 108 0
 302 002e 3220     		movs	r0, #50
 303 0030 FFF7FEFF 		bl	CyDelay
 304              	.LVL47:
 109:main.c        ****             break;
 305              		.loc 1 109 0
 306 0034 21E0     		b	.L6
 307              	.L7:
 110:main.c        ****         
 111:main.c        ****         case(0x2):
 112:main.c        ****             //F
 113:main.c        ****             Buzz_PWM_WritePeriod(Buzz_F);
 308              		.loc 1 113 0
 309 0036 1248     		ldr	r0, .L12
 310 0038 FFF7FEFF 		bl	Buzz_PWM_WritePeriod
 311              	.LVL48:
 114:main.c        ****             Buzz_PWM_WriteCompare(Buzz_F/2);
 312              		.loc 1 114 0
 313 003c B320     		movs	r0, #179
 314 003e C000     		lsls	r0, r0, #3
 315 0040 FFF7FEFF 		bl	Buzz_PWM_WriteCompare
 316              	.LVL49:
 115:main.c        ****             CyDelay(Buzz_Delay / 4);
 317              		.loc 1 115 0
 318 0044 3220     		movs	r0, #50
 319 0046 FFF7FEFF 		bl	CyDelay
 320              	.LVL50:
 116:main.c        ****         
 117:main.c        ****             break;
 321              		.loc 1 117 0
 322 004a 16E0     		b	.L6
 323              	.L10:
 118:main.c        ****         
 119:main.c        ****         case(0x4):
 120:main.c        ****             //A
 121:main.c        ****             Buzz_PWM_WritePeriod(Buzz_A);
 324              		.loc 1 121 0
 325 004c 8E20     		movs	r0, #142
 326 004e 0001     		lsls	r0, r0, #4
 327 0050 FFF7FEFF 		bl	Buzz_PWM_WritePeriod
 328              	.LVL51:
 122:main.c        ****             Buzz_PWM_WriteCompare(Buzz_A/2);
 329              		.loc 1 122 0
 330 0054 8E20     		movs	r0, #142
 331 0056 C000     		lsls	r0, r0, #3
 332 0058 FFF7FEFF 		bl	Buzz_PWM_WriteCompare
 333              	.LVL52:
 123:main.c        ****             CyDelay(Buzz_Delay / 4);        
ARM GAS  C:\Users\yura\AppData\Local\Temp\ccdecsYX.s 			page 9


 334              		.loc 1 123 0
 335 005c 3220     		movs	r0, #50
 336 005e FFF7FEFF 		bl	CyDelay
 337              	.LVL53:
 124:main.c        ****             break;
 338              		.loc 1 124 0
 339 0062 0AE0     		b	.L6
 340              	.L11:
 125:main.c        ****         
 126:main.c        ****         case(0x8):        
 127:main.c        ****             //C
 128:main.c        ****             Buzz_PWM_WritePeriod(Buzz_C);
 341              		.loc 1 128 0
 342 0064 EF20     		movs	r0, #239
 343 0066 0001     		lsls	r0, r0, #4
 344 0068 FFF7FEFF 		bl	Buzz_PWM_WritePeriod
 345              	.LVL54:
 129:main.c        ****             Buzz_PWM_WriteCompare(Buzz_C/2);
 346              		.loc 1 129 0
 347 006c EF20     		movs	r0, #239
 348 006e C000     		lsls	r0, r0, #3
 349 0070 FFF7FEFF 		bl	Buzz_PWM_WriteCompare
 350              	.LVL55:
 130:main.c        ****             CyDelay(Buzz_Delay / 4);
 351              		.loc 1 130 0
 352 0074 3220     		movs	r0, #50
 353 0076 FFF7FEFF 		bl	CyDelay
 354              	.LVL56:
 355              	.L6:
 131:main.c        ****             break;   
 132:main.c        ****         
 133:main.c        ****         default:
 134:main.c        ****         break;
 135:main.c        ****     }
 136:main.c        ****         
 137:main.c        ****     Buzz_PWM_Sleep();
 356              		.loc 1 137 0
 357 007a FFF7FEFF 		bl	Buzz_PWM_Sleep
 358              	.LVL57:
 138:main.c        **** }
 359              		.loc 1 138 0
 360              		@ sp needed
 361              	.LVL58:
 362 007e 10BD     		pop	{r4, pc}
 363              	.L13:
 364              		.align	2
 365              	.L12:
 366 0080 310B0000 		.word	2865
 367              		.cfi_endproc
 368              	.LFE34:
 369              		.size	Buzz_Play_ButtMelody, .-Buzz_Play_ButtMelody
 370              		.section	.text.main,"ax",%progbits
 371              		.align	2
 372              		.global	main
 373              		.code	16
 374              		.thumb_func
 375              		.type	main, %function
ARM GAS  C:\Users\yura\AppData\Local\Temp\ccdecsYX.s 			page 10


 376              	main:
 377              	.LFB35:
 139:main.c        **** 
 140:main.c        **** 
 141:main.c        **** int main()
 142:main.c        **** {
 378              		.loc 1 142 0
 379              		.cfi_startproc
 380              		@ args = 0, pretend = 0, frame = 8
 381              		@ frame_needed = 0, uses_anonymous_args = 0
 382 0000 10B5     		push	{r4, lr}
 383              		.cfi_def_cfa_offset 8
 384              		.cfi_offset 4, -8
 385              		.cfi_offset 14, -4
 386 0002 82B0     		sub	sp, sp, #8
 387              		.cfi_def_cfa_offset 16
 143:main.c        ****     int16 counts; 
 144:main.c        ****     int16 mVolts; 
 145:main.c        **** 
 146:main.c        ****     uint8 i2cReg[3]; 
 147:main.c        ****     EZI2C_Start();
 388              		.loc 1 147 0
 389 0004 FFF7FEFF 		bl	EZI2C_Start
 390              	.LVL59:
 148:main.c        ****     EZI2C_EzI2CSetBuffer1(sizeof(i2cReg), WRITABLE, i2cReg);
 391              		.loc 1 148 0
 392 0008 01AA     		add	r2, sp, #4
 393 000a 0321     		movs	r1, #3
 394 000c 0320     		movs	r0, #3
 395 000e FFF7FEFF 		bl	EZI2C_EzI2CSetBuffer1
 396              	.LVL60:
 149:main.c        ****     ADC_Start();
 397              		.loc 1 149 0
 398 0012 FFF7FEFF 		bl	ADC_Start
 399              	.LVL61:
 150:main.c        ****     ADC_StartConvert();
 400              		.loc 1 150 0
 401 0016 FFF7FEFF 		bl	ADC_StartConvert
 402              	.LVL62:
 151:main.c        ****     LCD_Start();
 403              		.loc 1 151 0
 404 001a FFF7FEFF 		bl	LCD_Start
 405              	.LVL63:
 152:main.c        ****     Buzz_PWM_Start();
 406              		.loc 1 152 0
 407 001e FFF7FEFF 		bl	Buzz_PWM_Start
 408              	.LVL64:
 153:main.c        ****     Buzz_PWM_Sleep();
 409              		.loc 1 153 0
 410 0022 FFF7FEFF 		bl	Buzz_PWM_Sleep
 411              	.LVL65:
 154:main.c        **** 
 155:main.c        ****     CyGlobalIntEnable;
 412              		.loc 1 155 0
 413              		.syntax divided
 414              	@ 155 "main.c" 1
 415 0026 62B6     		CPSIE   i
ARM GAS  C:\Users\yura\AppData\Local\Temp\ccdecsYX.s 			page 11


 416              	@ 0 "" 2
 417              		.thumb
 418              		.syntax unified
 419              	.L21:
 420              	.LBB2:
 156:main.c        ****     for(;;)
 157:main.c        ****     {
 158:main.c        ****         counts = ADC_GetResult16(POT_CHAN);
 421              		.loc 1 158 0
 422 0028 0020     		movs	r0, #0
 423 002a FFF7FEFF 		bl	ADC_GetResult16
 424              	.LVL66:
 425 002e 0100     		movs	r1, r0
 426              	.LVL67:
 159:main.c        ****         mVolts = ADC_CountsTo_mVolts(POT_CHAN,counts);
 427              		.loc 1 159 0
 428 0030 0020     		movs	r0, #0
 429 0032 FFF7FEFF 		bl	ADC_CountsTo_mVolts
 430              	.LVL68:
 160:main.c        ****         
 161:main.c        ****         int pot_state =  (mVolts >> 10) +1;
 431              		.loc 1 161 0
 432 0036 8012     		asrs	r0, r0, #10
 433              	.LVL69:
 434 0038 04B2     		sxth	r4, r0
 435 003a 0134     		adds	r4, r4, #1
 436              	.LVL70:
 162:main.c        ****         i2cReg[2] = pot_state;
 437              		.loc 1 162 0
 438 003c 01AB     		add	r3, sp, #4
 439 003e 9C70     		strb	r4, [r3, #2]
 163:main.c        ****         if (i2cReg[0] == INIT_STATE ){
 440              		.loc 1 163 0
 441 0040 1B78     		ldrb	r3, [r3]
 442 0042 402B     		cmp	r3, #64
 443 0044 19D1     		bne	.L15
 164:main.c        ****             LCD_ClearDisplay();
 444              		.loc 1 164 0
 445 0046 0120     		movs	r0, #1
 446 0048 FFF7FEFF 		bl	LCD_WriteControl
 447              	.LVL71:
 165:main.c        ****             LCD_Position(0,0);
 448              		.loc 1 165 0
 449 004c 0021     		movs	r1, #0
 450 004e 0020     		movs	r0, #0
 451 0050 FFF7FEFF 		bl	LCD_Position
 452              	.LVL72:
 166:main.c        ****             LCD_PrintString("INIT");
 453              		.loc 1 166 0
 454 0054 2F48     		ldr	r0, .L22
 455 0056 FFF7FEFF 		bl	LCD_PrintString
 456              	.LVL73:
 167:main.c        ****             LCD_Position(1,0);
 457              		.loc 1 167 0
 458 005a 0021     		movs	r1, #0
 459 005c 0120     		movs	r0, #1
 460 005e FFF7FEFF 		bl	LCD_Position
ARM GAS  C:\Users\yura\AppData\Local\Temp\ccdecsYX.s 			page 12


 461              	.LVL74:
 168:main.c        ****             LCD_PrintString("SPEED");
 462              		.loc 1 168 0
 463 0062 2D48     		ldr	r0, .L22+4
 464 0064 FFF7FEFF 		bl	LCD_PrintString
 465              	.LVL75:
 169:main.c        ****             LCD_Position(1,7);
 466              		.loc 1 169 0
 467 0068 0721     		movs	r1, #7
 468 006a 0120     		movs	r0, #1
 469 006c FFF7FEFF 		bl	LCD_Position
 470              	.LVL76:
 170:main.c        ****             LCD_PrintNumber(pot_state);
 471              		.loc 1 170 0
 472 0070 2004     		lsls	r0, r4, #16
 473 0072 000C     		lsrs	r0, r0, #16
 474 0074 FFF7FEFF 		bl	LCD_PrintU32Number
 475              	.LVL77:
 476 0078 36E0     		b	.L16
 477              	.L15:
 171:main.c        ****             
 172:main.c        ****         }
 173:main.c        ****         else  if (i2cReg[0] == PASS_STATE ){
 478              		.loc 1 173 0
 479 007a 202B     		cmp	r3, #32
 480 007c 0CD1     		bne	.L17
 174:main.c        ****             LCD_ClearDisplay();
 481              		.loc 1 174 0
 482 007e 0120     		movs	r0, #1
 483 0080 FFF7FEFF 		bl	LCD_WriteControl
 484              	.LVL78:
 175:main.c        ****             LCD_Position(0,0);
 485              		.loc 1 175 0
 486 0084 0021     		movs	r1, #0
 487 0086 0020     		movs	r0, #0
 488 0088 FFF7FEFF 		bl	LCD_Position
 489              	.LVL79:
 176:main.c        ****             LCD_PrintString("PASS");
 490              		.loc 1 176 0
 491 008c 2348     		ldr	r0, .L22+8
 492 008e FFF7FEFF 		bl	LCD_PrintString
 493              	.LVL80:
 177:main.c        ****             Buzz_Play_SuccesMelody();
 494              		.loc 1 177 0
 495 0092 FFF7FEFF 		bl	Buzz_Play_SuccesMelody
 496              	.LVL81:
 497 0096 27E0     		b	.L16
 498              	.L17:
 178:main.c        ****         
 179:main.c        ****         }
 180:main.c        ****         else  if (i2cReg[0] == FAIL_STATE ){
 499              		.loc 1 180 0
 500 0098 102B     		cmp	r3, #16
 501 009a 0CD1     		bne	.L18
 181:main.c        ****             LCD_ClearDisplay();
 502              		.loc 1 181 0
 503 009c 0120     		movs	r0, #1
ARM GAS  C:\Users\yura\AppData\Local\Temp\ccdecsYX.s 			page 13


 504 009e FFF7FEFF 		bl	LCD_WriteControl
 505              	.LVL82:
 182:main.c        ****             LCD_Position(0,0);
 506              		.loc 1 182 0
 507 00a2 0021     		movs	r1, #0
 508 00a4 0020     		movs	r0, #0
 509 00a6 FFF7FEFF 		bl	LCD_Position
 510              	.LVL83:
 183:main.c        ****             LCD_PrintString("FAIL");
 511              		.loc 1 183 0
 512 00aa 1D48     		ldr	r0, .L22+12
 513 00ac FFF7FEFF 		bl	LCD_PrintString
 514              	.LVL84:
 184:main.c        ****             Buzz_Play_DefMelody();
 515              		.loc 1 184 0
 516 00b0 FFF7FEFF 		bl	Buzz_Play_DefMelody
 517              	.LVL85:
 518 00b4 18E0     		b	.L16
 519              	.L18:
 185:main.c        ****         }
 186:main.c        ****         else{
 187:main.c        ****             LCD_ClearDisplay();
 520              		.loc 1 187 0
 521 00b6 0120     		movs	r0, #1
 522 00b8 FFF7FEFF 		bl	LCD_WriteControl
 523              	.LVL86:
 188:main.c        ****             LCD_Position(0,0);
 524              		.loc 1 188 0
 525 00bc 0021     		movs	r1, #0
 526 00be 0020     		movs	r0, #0
 527 00c0 FFF7FEFF 		bl	LCD_Position
 528              	.LVL87:
 189:main.c        ****             LCD_PrintString("RUN");
 529              		.loc 1 189 0
 530 00c4 1748     		ldr	r0, .L22+16
 531 00c6 FFF7FEFF 		bl	LCD_PrintString
 532              	.LVL88:
 190:main.c        ****             LCD_Position(1,0);
 533              		.loc 1 190 0
 534 00ca 0021     		movs	r1, #0
 535 00cc 0120     		movs	r0, #1
 536 00ce FFF7FEFF 		bl	LCD_Position
 537              	.LVL89:
 191:main.c        ****             LCD_PrintString("SPEED");
 538              		.loc 1 191 0
 539 00d2 1148     		ldr	r0, .L22+4
 540 00d4 FFF7FEFF 		bl	LCD_PrintString
 541              	.LVL90:
 192:main.c        ****             LCD_Position(1,7);
 542              		.loc 1 192 0
 543 00d8 0721     		movs	r1, #7
 544 00da 0120     		movs	r0, #1
 545 00dc FFF7FEFF 		bl	LCD_Position
 546              	.LVL91:
 193:main.c        ****             LCD_PrintNumber(pot_state);
 547              		.loc 1 193 0
 548 00e0 2004     		lsls	r0, r4, #16
ARM GAS  C:\Users\yura\AppData\Local\Temp\ccdecsYX.s 			page 14


 549 00e2 000C     		lsrs	r0, r0, #16
 550 00e4 FFF7FEFF 		bl	LCD_PrintU32Number
 551              	.LVL92:
 552              	.L16:
 194:main.c        ****         }
 195:main.c        ****         i2cReg[1] = Status_Reg_Read();
 553              		.loc 1 195 0
 554 00e8 FFF7FEFF 		bl	Status_Reg_Read
 555              	.LVL93:
 556 00ec 01AC     		add	r4, sp, #4
 557              	.LVL94:
 558 00ee 6070     		strb	r0, [r4, #1]
 196:main.c        ****         Buzz_Play_ButtMelody(i2cReg[1]);
 559              		.loc 1 196 0
 560 00f0 FFF7FEFF 		bl	Buzz_Play_ButtMelody
 561              	.LVL95:
 197:main.c        ****         if (i2cReg[0] ==0x1 || i2cReg[0] ==0x2 || i2cReg[0] ==0x4 || i2cReg[0] ==0x8){
 562              		.loc 1 197 0
 563 00f4 2078     		ldrb	r0, [r4]
 564 00f6 431E     		subs	r3, r0, #1
 565 00f8 DBB2     		uxtb	r3, r3
 566 00fa 012B     		cmp	r3, #1
 567 00fc 03D9     		bls	.L19
 568              		.loc 1 197 0 is_stmt 0 discriminator 1
 569 00fe 0428     		cmp	r0, #4
 570 0100 01D0     		beq	.L19
 571              		.loc 1 197 0 discriminator 2
 572 0102 0828     		cmp	r0, #8
 573 0104 01D1     		bne	.L20
 574              	.L19:
 198:main.c        ****             Buzz_Play_ButtMelody(i2cReg[0]);
 575              		.loc 1 198 0 is_stmt 1
 576 0106 FFF7FEFF 		bl	Buzz_Play_ButtMelody
 577              	.LVL96:
 578              	.L20:
 199:main.c        ****         }
 200:main.c        ****         
 201:main.c        ****         
 202:main.c        ****         
 203:main.c        **** 
 204:main.c        ****              
 205:main.c        ****         
 206:main.c        ****     //sw4 12 
 207:main.c        ****     /* Store ADC value in I2C buffer */
 208:main.c        ****         CyDelay(100);
 579              		.loc 1 208 0
 580 010a 6420     		movs	r0, #100
 581 010c FFF7FEFF 		bl	CyDelay
 582              	.LVL97:
 583              	.LBE2:
 209:main.c        ****     }
 584              		.loc 1 209 0
 585 0110 8AE7     		b	.L21
 586              	.L23:
 587 0112 C046     		.align	2
 588              	.L22:
 589 0114 00000000 		.word	.LC0
ARM GAS  C:\Users\yura\AppData\Local\Temp\ccdecsYX.s 			page 15


 590 0118 08000000 		.word	.LC2
 591 011c 10000000 		.word	.LC4
 592 0120 18000000 		.word	.LC6
 593 0124 20000000 		.word	.LC8
 594              		.cfi_endproc
 595              	.LFE35:
 596              		.size	main, .-main
 597              		.section	.rodata.str1.4,"aMS",%progbits,1
 598              		.align	2
 599              	.LC0:
 600 0000 494E4954 		.ascii	"INIT\000"
 600      00
 601 0005 000000   		.space	3
 602              	.LC2:
 603 0008 53504545 		.ascii	"SPEED\000"
 603      4400
 604 000e 0000     		.space	2
 605              	.LC4:
 606 0010 50415353 		.ascii	"PASS\000"
 606      00
 607 0015 000000   		.space	3
 608              	.LC6:
 609 0018 4641494C 		.ascii	"FAIL\000"
 609      00
 610 001d 000000   		.space	3
 611              	.LC8:
 612 0020 52554E00 		.ascii	"RUN\000"
 613              		.text
 614              	.Letext0:
 615              		.file 2 "Generated_Source\\PSoC4/cytypes.h"
 616              		.file 3 "Generated_Source\\PSoC4/Buzz_PWM.h"
 617              		.file 4 "Generated_Source\\PSoC4/CyLib.h"
 618              		.file 5 "Generated_Source\\PSoC4/ADC.h"
 619              		.file 6 "Generated_Source\\PSoC4/LCD.h"
 620              		.file 7 "Generated_Source\\PSoC4/Status_Reg.h"
 621              		.file 8 "Generated_Source\\PSoC4/EZI2C.h"
 622              		.file 9 "Generated_Source\\PSoC4/EZI2C_EZI2C.h"