ARM GAS  C:\Users\yura\AppData\Local\Temp\ccTVbRsY.s 			page 1


   1              		.syntax unified
   2              		.cpu cortex-m0
   3              		.fpu softvfp
   4              		.eabi_attribute 20, 1
   5              		.eabi_attribute 21, 1
   6              		.eabi_attribute 23, 3
   7              		.eabi_attribute 24, 1
   8              		.eabi_attribute 25, 1
   9              		.eabi_attribute 26, 1
  10              		.eabi_attribute 30, 1
  11              		.eabi_attribute 34, 0
  12              		.eabi_attribute 18, 4
  13              		.thumb
  14              		.syntax unified
  15              		.file	"cyfitter_cfg.c"
  16              		.text
  17              	.Ltext0:
  18              		.cfi_sections	.debug_frame
  19              		.section	.text.cfg_write_bytes32,"ax",%progbits
  20              		.align	2
  21              		.code	16
  22              		.thumb_func
  23              		.type	cfg_write_bytes32, %function
  24              	cfg_write_bytes32:
  25              	.LFB3:
  26              		.file 1 "Generated_Source\\PSoC4\\cyfitter_cfg.c"
   1:Generated_Source\PSoC4/cyfitter_cfg.c **** 
   2:Generated_Source\PSoC4/cyfitter_cfg.c **** /*******************************************************************************
   3:Generated_Source\PSoC4/cyfitter_cfg.c **** * File Name: cyfitter_cfg.c
   4:Generated_Source\PSoC4/cyfitter_cfg.c **** * 
   5:Generated_Source\PSoC4/cyfitter_cfg.c **** * PSoC Creator  4.4
   6:Generated_Source\PSoC4/cyfitter_cfg.c **** *
   7:Generated_Source\PSoC4/cyfitter_cfg.c **** * Description:
   8:Generated_Source\PSoC4/cyfitter_cfg.c **** * This file contains device initialization code.
   9:Generated_Source\PSoC4/cyfitter_cfg.c **** * Except for the user defined sections in CyClockStartupError(), this file should not be modified.
  10:Generated_Source\PSoC4/cyfitter_cfg.c **** * This file is automatically generated by PSoC Creator.
  11:Generated_Source\PSoC4/cyfitter_cfg.c **** *
  12:Generated_Source\PSoC4/cyfitter_cfg.c **** ********************************************************************************
  13:Generated_Source\PSoC4/cyfitter_cfg.c **** * Copyright (c) 2007-2020 Cypress Semiconductor.  All rights reserved.
  14:Generated_Source\PSoC4/cyfitter_cfg.c **** * You may use this file only in accordance with the license, terms, conditions, 
  15:Generated_Source\PSoC4/cyfitter_cfg.c **** * disclaimers, and limitations in the end user license agreement accompanying 
  16:Generated_Source\PSoC4/cyfitter_cfg.c **** * the software package with which this file was provided.
  17:Generated_Source\PSoC4/cyfitter_cfg.c **** ********************************************************************************/
  18:Generated_Source\PSoC4/cyfitter_cfg.c **** 
  19:Generated_Source\PSoC4/cyfitter_cfg.c **** #include <string.h>
  20:Generated_Source\PSoC4/cyfitter_cfg.c **** #include "cytypes.h"
  21:Generated_Source\PSoC4/cyfitter_cfg.c **** #include "cydevice_trm.h"
  22:Generated_Source\PSoC4/cyfitter_cfg.c **** #include "cyfitter.h"
  23:Generated_Source\PSoC4/cyfitter_cfg.c **** #include "CyLib.h"
  24:Generated_Source\PSoC4/cyfitter_cfg.c **** #include "CyLFClk.h"
  25:Generated_Source\PSoC4/cyfitter_cfg.c **** #include "cyfitter_cfg.h"
  26:Generated_Source\PSoC4/cyfitter_cfg.c **** #include "cyapicallbacks.h"
  27:Generated_Source\PSoC4/cyfitter_cfg.c **** 
  28:Generated_Source\PSoC4/cyfitter_cfg.c **** 
  29:Generated_Source\PSoC4/cyfitter_cfg.c **** #if defined(__GNUC__) || defined(__ARMCC_VERSION)
  30:Generated_Source\PSoC4/cyfitter_cfg.c ****     #define CYPACKED 
  31:Generated_Source\PSoC4/cyfitter_cfg.c ****     #define CYPACKED_ATTR __attribute__ ((packed))
ARM GAS  C:\Users\yura\AppData\Local\Temp\ccTVbRsY.s 			page 2


  32:Generated_Source\PSoC4/cyfitter_cfg.c ****     #define CYALIGNED __attribute__ ((aligned))
  33:Generated_Source\PSoC4/cyfitter_cfg.c ****     #define CY_CFG_UNUSED __attribute__ ((unused))
  34:Generated_Source\PSoC4/cyfitter_cfg.c ****     #ifndef CY_CFG_SECTION
  35:Generated_Source\PSoC4/cyfitter_cfg.c ****         #define CY_CFG_SECTION __attribute__ ((section(".psocinit")))
  36:Generated_Source\PSoC4/cyfitter_cfg.c ****     #endif
  37:Generated_Source\PSoC4/cyfitter_cfg.c ****     
  38:Generated_Source\PSoC4/cyfitter_cfg.c ****     #if defined(__ARMCC_VERSION)
  39:Generated_Source\PSoC4/cyfitter_cfg.c ****         #define CY_CFG_MEMORY_BARRIER() __memory_changed()
  40:Generated_Source\PSoC4/cyfitter_cfg.c ****     #else
  41:Generated_Source\PSoC4/cyfitter_cfg.c ****         #define CY_CFG_MEMORY_BARRIER() __sync_synchronize()
  42:Generated_Source\PSoC4/cyfitter_cfg.c ****     #endif
  43:Generated_Source\PSoC4/cyfitter_cfg.c ****     
  44:Generated_Source\PSoC4/cyfitter_cfg.c **** #elif defined(__ICCARM__)
  45:Generated_Source\PSoC4/cyfitter_cfg.c ****     #include <intrinsics.h>
  46:Generated_Source\PSoC4/cyfitter_cfg.c **** 
  47:Generated_Source\PSoC4/cyfitter_cfg.c ****     #define CYPACKED __packed
  48:Generated_Source\PSoC4/cyfitter_cfg.c ****     #define CYPACKED_ATTR 
  49:Generated_Source\PSoC4/cyfitter_cfg.c ****     #define CYALIGNED _Pragma("data_alignment=4")
  50:Generated_Source\PSoC4/cyfitter_cfg.c ****     #define CY_CFG_UNUSED _Pragma("diag_suppress=Pe177")
  51:Generated_Source\PSoC4/cyfitter_cfg.c ****     #define CY_CFG_SECTION _Pragma("location=\".psocinit\"")
  52:Generated_Source\PSoC4/cyfitter_cfg.c ****     
  53:Generated_Source\PSoC4/cyfitter_cfg.c ****     #define CY_CFG_MEMORY_BARRIER() __DMB()
  54:Generated_Source\PSoC4/cyfitter_cfg.c ****     
  55:Generated_Source\PSoC4/cyfitter_cfg.c **** #else
  56:Generated_Source\PSoC4/cyfitter_cfg.c ****     #error Unsupported toolchain
  57:Generated_Source\PSoC4/cyfitter_cfg.c **** #endif
  58:Generated_Source\PSoC4/cyfitter_cfg.c **** 
  59:Generated_Source\PSoC4/cyfitter_cfg.c **** #ifndef CYCODE
  60:Generated_Source\PSoC4/cyfitter_cfg.c ****     #define CYCODE
  61:Generated_Source\PSoC4/cyfitter_cfg.c **** #endif
  62:Generated_Source\PSoC4/cyfitter_cfg.c **** #ifndef CYDATA
  63:Generated_Source\PSoC4/cyfitter_cfg.c ****     #define CYDATA
  64:Generated_Source\PSoC4/cyfitter_cfg.c **** #endif
  65:Generated_Source\PSoC4/cyfitter_cfg.c **** #ifndef CYFAR
  66:Generated_Source\PSoC4/cyfitter_cfg.c ****     #define CYFAR
  67:Generated_Source\PSoC4/cyfitter_cfg.c **** #endif
  68:Generated_Source\PSoC4/cyfitter_cfg.c **** #ifndef CYXDATA
  69:Generated_Source\PSoC4/cyfitter_cfg.c ****     #define CYXDATA
  70:Generated_Source\PSoC4/cyfitter_cfg.c **** #endif
  71:Generated_Source\PSoC4/cyfitter_cfg.c **** 
  72:Generated_Source\PSoC4/cyfitter_cfg.c **** 
  73:Generated_Source\PSoC4/cyfitter_cfg.c **** CY_CFG_UNUSED
  74:Generated_Source\PSoC4/cyfitter_cfg.c **** static void CYMEMZERO(void *s, size_t n);
  75:Generated_Source\PSoC4/cyfitter_cfg.c **** CY_CFG_UNUSED
  76:Generated_Source\PSoC4/cyfitter_cfg.c **** static void CYMEMZERO(void *s, size_t n)
  77:Generated_Source\PSoC4/cyfitter_cfg.c **** {
  78:Generated_Source\PSoC4/cyfitter_cfg.c **** 	(void)memset(s, 0, n);
  79:Generated_Source\PSoC4/cyfitter_cfg.c **** }
  80:Generated_Source\PSoC4/cyfitter_cfg.c **** CY_CFG_UNUSED
  81:Generated_Source\PSoC4/cyfitter_cfg.c **** static void CYCONFIGCPY(void *dest, const void *src, size_t n);
  82:Generated_Source\PSoC4/cyfitter_cfg.c **** CY_CFG_UNUSED
  83:Generated_Source\PSoC4/cyfitter_cfg.c **** static void CYCONFIGCPY(void *dest, const void *src, size_t n)
  84:Generated_Source\PSoC4/cyfitter_cfg.c **** {
  85:Generated_Source\PSoC4/cyfitter_cfg.c **** 	(void)memcpy(dest, src, n);
  86:Generated_Source\PSoC4/cyfitter_cfg.c **** }
  87:Generated_Source\PSoC4/cyfitter_cfg.c **** CY_CFG_UNUSED
  88:Generated_Source\PSoC4/cyfitter_cfg.c **** static void CYCONFIGCPYCODE(void *dest, const void *src, size_t n);
ARM GAS  C:\Users\yura\AppData\Local\Temp\ccTVbRsY.s 			page 3


  89:Generated_Source\PSoC4/cyfitter_cfg.c **** CY_CFG_UNUSED
  90:Generated_Source\PSoC4/cyfitter_cfg.c **** static void CYCONFIGCPYCODE(void *dest, const void *src, size_t n)
  91:Generated_Source\PSoC4/cyfitter_cfg.c **** {
  92:Generated_Source\PSoC4/cyfitter_cfg.c **** 	(void)memcpy(dest, src, n);
  93:Generated_Source\PSoC4/cyfitter_cfg.c **** }
  94:Generated_Source\PSoC4/cyfitter_cfg.c **** 
  95:Generated_Source\PSoC4/cyfitter_cfg.c **** 
  96:Generated_Source\PSoC4/cyfitter_cfg.c **** 
  97:Generated_Source\PSoC4/cyfitter_cfg.c **** 
  98:Generated_Source\PSoC4/cyfitter_cfg.c **** /* Clock startup error codes                                                   */
  99:Generated_Source\PSoC4/cyfitter_cfg.c **** #define CYCLOCKSTART_NO_ERROR    0u
 100:Generated_Source\PSoC4/cyfitter_cfg.c **** #define CYCLOCKSTART_XTAL_ERROR  1u
 101:Generated_Source\PSoC4/cyfitter_cfg.c **** #define CYCLOCKSTART_32KHZ_ERROR 2u
 102:Generated_Source\PSoC4/cyfitter_cfg.c **** #define CYCLOCKSTART_PLL_ERROR   3u
 103:Generated_Source\PSoC4/cyfitter_cfg.c **** #define CYCLOCKSTART_FLL_ERROR   4u
 104:Generated_Source\PSoC4/cyfitter_cfg.c **** #define CYCLOCKSTART_WCO_ERROR   5u
 105:Generated_Source\PSoC4/cyfitter_cfg.c **** 
 106:Generated_Source\PSoC4/cyfitter_cfg.c **** 
 107:Generated_Source\PSoC4/cyfitter_cfg.c **** #ifdef CY_NEED_CYCLOCKSTARTUPERROR
 108:Generated_Source\PSoC4/cyfitter_cfg.c **** /*******************************************************************************
 109:Generated_Source\PSoC4/cyfitter_cfg.c **** * Function Name: CyClockStartupError
 110:Generated_Source\PSoC4/cyfitter_cfg.c **** ********************************************************************************
 111:Generated_Source\PSoC4/cyfitter_cfg.c **** * Summary:
 112:Generated_Source\PSoC4/cyfitter_cfg.c **** *  If an error is encountered during clock configuration (crystal startup error,
 113:Generated_Source\PSoC4/cyfitter_cfg.c **** *  PLL lock error, etc.), the system will end up here.  Unless reimplemented by
 114:Generated_Source\PSoC4/cyfitter_cfg.c **** *  the customer, this function will stop in an infinite loop.
 115:Generated_Source\PSoC4/cyfitter_cfg.c **** *
 116:Generated_Source\PSoC4/cyfitter_cfg.c **** * Parameters:
 117:Generated_Source\PSoC4/cyfitter_cfg.c **** *   void
 118:Generated_Source\PSoC4/cyfitter_cfg.c **** *
 119:Generated_Source\PSoC4/cyfitter_cfg.c **** * Return:
 120:Generated_Source\PSoC4/cyfitter_cfg.c **** *   void
 121:Generated_Source\PSoC4/cyfitter_cfg.c **** *
 122:Generated_Source\PSoC4/cyfitter_cfg.c **** *******************************************************************************/
 123:Generated_Source\PSoC4/cyfitter_cfg.c **** CY_CFG_UNUSED
 124:Generated_Source\PSoC4/cyfitter_cfg.c **** static void CyClockStartupError(uint8 errorCode);
 125:Generated_Source\PSoC4/cyfitter_cfg.c **** CY_CFG_UNUSED
 126:Generated_Source\PSoC4/cyfitter_cfg.c **** static void CyClockStartupError(uint8 errorCode)
 127:Generated_Source\PSoC4/cyfitter_cfg.c **** {
 128:Generated_Source\PSoC4/cyfitter_cfg.c ****     /* To remove the compiler warning if errorCode not used.                */
 129:Generated_Source\PSoC4/cyfitter_cfg.c ****     errorCode = errorCode;
 130:Generated_Source\PSoC4/cyfitter_cfg.c **** 
 131:Generated_Source\PSoC4/cyfitter_cfg.c ****     /* If we have a clock startup error (bad MHz crystal, PLL lock, etc.),  */
 132:Generated_Source\PSoC4/cyfitter_cfg.c ****     /* we will end up here to allow the customer to implement something to  */
 133:Generated_Source\PSoC4/cyfitter_cfg.c ****     /* deal with the clock condition.                                       */
 134:Generated_Source\PSoC4/cyfitter_cfg.c **** 
 135:Generated_Source\PSoC4/cyfitter_cfg.c **** #ifdef CY_CFG_CLOCK_STARTUP_ERROR_CALLBACK
 136:Generated_Source\PSoC4/cyfitter_cfg.c ****     CY_CFG_Clock_Startup_ErrorCallback();
 137:Generated_Source\PSoC4/cyfitter_cfg.c **** #else
 138:Generated_Source\PSoC4/cyfitter_cfg.c ****     /*  If not using CY_CFG_CLOCK_STARTUP_ERROR_CALLBACK, place your clock startup code here. */
 139:Generated_Source\PSoC4/cyfitter_cfg.c ****     /* `#START CyClockStartupError` */
 140:Generated_Source\PSoC4/cyfitter_cfg.c **** 
 141:Generated_Source\PSoC4/cyfitter_cfg.c **** 
 142:Generated_Source\PSoC4/cyfitter_cfg.c **** 
 143:Generated_Source\PSoC4/cyfitter_cfg.c ****     /* `#END` */
 144:Generated_Source\PSoC4/cyfitter_cfg.c **** 
 145:Generated_Source\PSoC4/cyfitter_cfg.c ****     while(1) {}
ARM GAS  C:\Users\yura\AppData\Local\Temp\ccTVbRsY.s 			page 4


 146:Generated_Source\PSoC4/cyfitter_cfg.c **** #endif /* CY_CFG_CLOCK_STARTUP_ERROR_CALLBACK */
 147:Generated_Source\PSoC4/cyfitter_cfg.c **** }
 148:Generated_Source\PSoC4/cyfitter_cfg.c **** #endif
 149:Generated_Source\PSoC4/cyfitter_cfg.c **** 
 150:Generated_Source\PSoC4/cyfitter_cfg.c **** #define CY_CFG_BASE_ADDR_COUNT 6u
 151:Generated_Source\PSoC4/cyfitter_cfg.c **** CYPACKED typedef struct
 152:Generated_Source\PSoC4/cyfitter_cfg.c **** {
 153:Generated_Source\PSoC4/cyfitter_cfg.c **** 	uint8 offset;
 154:Generated_Source\PSoC4/cyfitter_cfg.c **** 	uint8 value;
 155:Generated_Source\PSoC4/cyfitter_cfg.c **** } CYPACKED_ATTR cy_cfg_addrvalue_t;
 156:Generated_Source\PSoC4/cyfitter_cfg.c **** 
 157:Generated_Source\PSoC4/cyfitter_cfg.c **** 
 158:Generated_Source\PSoC4/cyfitter_cfg.c **** 
 159:Generated_Source\PSoC4/cyfitter_cfg.c **** /*******************************************************************************
 160:Generated_Source\PSoC4/cyfitter_cfg.c **** * Function Name: cfg_write_bytes32
 161:Generated_Source\PSoC4/cyfitter_cfg.c **** ********************************************************************************
 162:Generated_Source\PSoC4/cyfitter_cfg.c **** * Summary:
 163:Generated_Source\PSoC4/cyfitter_cfg.c **** *  This function is used for setting up the chip configuration areas that
 164:Generated_Source\PSoC4/cyfitter_cfg.c **** *  contain relatively sparse data.
 165:Generated_Source\PSoC4/cyfitter_cfg.c **** *
 166:Generated_Source\PSoC4/cyfitter_cfg.c **** * Parameters:
 167:Generated_Source\PSoC4/cyfitter_cfg.c **** *   void
 168:Generated_Source\PSoC4/cyfitter_cfg.c **** *
 169:Generated_Source\PSoC4/cyfitter_cfg.c **** * Return:
 170:Generated_Source\PSoC4/cyfitter_cfg.c **** *   void
 171:Generated_Source\PSoC4/cyfitter_cfg.c **** *
 172:Generated_Source\PSoC4/cyfitter_cfg.c **** *******************************************************************************/
 173:Generated_Source\PSoC4/cyfitter_cfg.c **** static void cfg_write_bytes32(const uint32 addr_table[], const cy_cfg_addrvalue_t data_table[]);
 174:Generated_Source\PSoC4/cyfitter_cfg.c **** static void cfg_write_bytes32(const uint32 addr_table[], const cy_cfg_addrvalue_t data_table[])
 175:Generated_Source\PSoC4/cyfitter_cfg.c **** {
  27              		.loc 1 175 0
  28              		.cfi_startproc
  29              		@ args = 0, pretend = 0, frame = 0
  30              		@ frame_needed = 0, uses_anonymous_args = 0
  31              	.LVL0:
  32 0000 F0B5     		push	{r4, r5, r6, r7, lr}
  33              		.cfi_def_cfa_offset 20
  34              		.cfi_offset 4, -20
  35              		.cfi_offset 5, -16
  36              		.cfi_offset 6, -12
  37              		.cfi_offset 7, -8
  38              		.cfi_offset 14, -4
  39              	.LVL1:
 176:Generated_Source\PSoC4/cyfitter_cfg.c **** 	/* For 32-bit little-endian architectures */
 177:Generated_Source\PSoC4/cyfitter_cfg.c **** 	uint32 i, j = 0u;
  40              		.loc 1 177 0
  41 0002 0025     		movs	r5, #0
 178:Generated_Source\PSoC4/cyfitter_cfg.c **** 	for (i = 0u; i < CY_CFG_BASE_ADDR_COUNT; i++)
  42              		.loc 1 178 0
  43 0004 0027     		movs	r7, #0
  44 0006 11E0     		b	.L2
  45              	.LVL2:
  46              	.L5:
  47              	.LBB2:
 179:Generated_Source\PSoC4/cyfitter_cfg.c **** 	{
 180:Generated_Source\PSoC4/cyfitter_cfg.c **** 		uint32 baseAddr = addr_table[i];
  48              		.loc 1 180 0
ARM GAS  C:\Users\yura\AppData\Local\Temp\ccTVbRsY.s 			page 5


  49 0008 BB00     		lsls	r3, r7, #2
  50 000a C658     		ldr	r6, [r0, r3]
  51              	.LVL3:
 181:Generated_Source\PSoC4/cyfitter_cfg.c **** 		uint8 count = (uint8)baseAddr;
  52              		.loc 1 181 0
  53 000c F3B2     		uxtb	r3, r6
  54              	.LVL4:
 182:Generated_Source\PSoC4/cyfitter_cfg.c **** 		baseAddr &= 0xFFFFFF00u;
  55              		.loc 1 182 0
  56 000e FF22     		movs	r2, #255
  57 0010 9643     		bics	r6, r2
  58              	.LVL5:
 183:Generated_Source\PSoC4/cyfitter_cfg.c **** 		while (count != 0u)
  59              		.loc 1 183 0
  60 0012 08E0     		b	.L3
  61              	.L4:
 184:Generated_Source\PSoC4/cyfitter_cfg.c **** 		{
 185:Generated_Source\PSoC4/cyfitter_cfg.c **** 			CY_SET_REG8((void *)(baseAddr + data_table[j].offset), data_table[j].value);
  62              		.loc 1 185 0
  63 0014 6A00     		lsls	r2, r5, #1
  64 0016 8A18     		adds	r2, r1, r2
  65 0018 1478     		ldrb	r4, [r2]
  66 001a A419     		adds	r4, r4, r6
  67 001c 5278     		ldrb	r2, [r2, #1]
  68 001e 2270     		strb	r2, [r4]
 186:Generated_Source\PSoC4/cyfitter_cfg.c **** 			j++;
  69              		.loc 1 186 0
  70 0020 0135     		adds	r5, r5, #1
  71              	.LVL6:
 187:Generated_Source\PSoC4/cyfitter_cfg.c **** 			count--;
  72              		.loc 1 187 0
  73 0022 013B     		subs	r3, r3, #1
  74              	.LVL7:
  75 0024 DBB2     		uxtb	r3, r3
  76              	.LVL8:
  77              	.L3:
 183:Generated_Source\PSoC4/cyfitter_cfg.c **** 		{
  78              		.loc 1 183 0
  79 0026 002B     		cmp	r3, #0
  80 0028 F4D1     		bne	.L4
  81              	.LBE2:
 178:Generated_Source\PSoC4/cyfitter_cfg.c **** 	{
  82              		.loc 1 178 0 discriminator 2
  83 002a 0137     		adds	r7, r7, #1
  84              	.LVL9:
  85              	.L2:
 178:Generated_Source\PSoC4/cyfitter_cfg.c **** 	{
  86              		.loc 1 178 0 is_stmt 0 discriminator 1
  87 002c 052F     		cmp	r7, #5
  88 002e EBD9     		bls	.L5
 188:Generated_Source\PSoC4/cyfitter_cfg.c **** 		}
 189:Generated_Source\PSoC4/cyfitter_cfg.c **** 	}
 190:Generated_Source\PSoC4/cyfitter_cfg.c **** }
  89              		.loc 1 190 0 is_stmt 1
  90              		@ sp needed
  91              	.LVL10:
  92              	.LVL11:
ARM GAS  C:\Users\yura\AppData\Local\Temp\ccTVbRsY.s 			page 6


  93 0030 F0BD     		pop	{r4, r5, r6, r7, pc}
  94              		.cfi_endproc
  95              	.LFE3:
  96              		.size	cfg_write_bytes32, .-cfg_write_bytes32
  97 0032 C046     		.section	.text.CYMEMZERO,"ax",%progbits
  98              		.align	2
  99              		.code	16
 100              		.thumb_func
 101              		.type	CYMEMZERO, %function
 102              	CYMEMZERO:
 103              	.LFB0:
  77:Generated_Source\PSoC4/cyfitter_cfg.c **** 	(void)memset(s, 0, n);
 104              		.loc 1 77 0
 105              		.cfi_startproc
 106              		@ args = 0, pretend = 0, frame = 0
 107              		@ frame_needed = 0, uses_anonymous_args = 0
 108              	.LVL12:
 109 0000 10B5     		push	{r4, lr}
 110              		.cfi_def_cfa_offset 8
 111              		.cfi_offset 4, -8
 112              		.cfi_offset 14, -4
 113 0002 0A00     		movs	r2, r1
  78:Generated_Source\PSoC4/cyfitter_cfg.c **** }
 114              		.loc 1 78 0
 115 0004 0021     		movs	r1, #0
 116              	.LVL13:
 117 0006 FFF7FEFF 		bl	memset
 118              	.LVL14:
  79:Generated_Source\PSoC4/cyfitter_cfg.c **** CY_CFG_UNUSED
 119              		.loc 1 79 0
 120              		@ sp needed
 121 000a 10BD     		pop	{r4, pc}
 122              		.cfi_endproc
 123              	.LFE0:
 124              		.size	CYMEMZERO, .-CYMEMZERO
 125              		.section	.psocinit,"ax",%progbits
 126              		.align	2
 127              		.code	16
 128              		.thumb_func
 129              		.type	ClockSetup, %function
 130              	ClockSetup:
 131              	.LFB4:
 191:Generated_Source\PSoC4/cyfitter_cfg.c **** 
 192:Generated_Source\PSoC4/cyfitter_cfg.c **** 
 193:Generated_Source\PSoC4/cyfitter_cfg.c **** /*******************************************************************************
 194:Generated_Source\PSoC4/cyfitter_cfg.c **** * Function Name: ClockSetup
 195:Generated_Source\PSoC4/cyfitter_cfg.c **** ********************************************************************************
 196:Generated_Source\PSoC4/cyfitter_cfg.c **** *
 197:Generated_Source\PSoC4/cyfitter_cfg.c **** * Summary:
 198:Generated_Source\PSoC4/cyfitter_cfg.c **** *   Performs the initialization of all of the clocks in the device based on the
 199:Generated_Source\PSoC4/cyfitter_cfg.c **** *   settings in the Clock tab of the DWR.  This includes enabling the requested
 200:Generated_Source\PSoC4/cyfitter_cfg.c **** *   clocks and setting the necessary dividers to produce the desired frequency. 
 201:Generated_Source\PSoC4/cyfitter_cfg.c **** *
 202:Generated_Source\PSoC4/cyfitter_cfg.c **** * Parameters:
 203:Generated_Source\PSoC4/cyfitter_cfg.c **** *   void
 204:Generated_Source\PSoC4/cyfitter_cfg.c **** *
 205:Generated_Source\PSoC4/cyfitter_cfg.c **** * Return:
ARM GAS  C:\Users\yura\AppData\Local\Temp\ccTVbRsY.s 			page 7


 206:Generated_Source\PSoC4/cyfitter_cfg.c **** *   void
 207:Generated_Source\PSoC4/cyfitter_cfg.c **** *
 208:Generated_Source\PSoC4/cyfitter_cfg.c **** *******************************************************************************/
 209:Generated_Source\PSoC4/cyfitter_cfg.c **** static void ClockSetup(void);
 210:Generated_Source\PSoC4/cyfitter_cfg.c **** CY_CFG_SECTION
 211:Generated_Source\PSoC4/cyfitter_cfg.c **** static void ClockSetup(void)
 212:Generated_Source\PSoC4/cyfitter_cfg.c **** {
 132              		.loc 1 212 0
 133              		.cfi_startproc
 134              		@ args = 0, pretend = 0, frame = 0
 135              		@ frame_needed = 0, uses_anonymous_args = 0
 136 0000 70B5     		push	{r4, r5, r6, lr}
 137              		.cfi_def_cfa_offset 16
 138              		.cfi_offset 4, -16
 139              		.cfi_offset 5, -12
 140              		.cfi_offset 6, -8
 141              		.cfi_offset 14, -4
 213:Generated_Source\PSoC4/cyfitter_cfg.c **** 	/* Enable HALF_EN before trimming for the flash accelerator. */
 214:Generated_Source\PSoC4/cyfitter_cfg.c **** 	CY_SET_REG32((void CYXDATA *)(CYREG_CLK_SELECT), (CY_GET_REG32((void *)CYREG_CLK_SELECT) | 0x00040
 142              		.loc 1 214 0
 143 0002 164C     		ldr	r4, .L8
 144 0004 2368     		ldr	r3, [r4]
 145 0006 8022     		movs	r2, #128
 146 0008 D202     		lsls	r2, r2, #11
 147 000a 1343     		orrs	r3, r2
 148 000c 2360     		str	r3, [r4]
 215:Generated_Source\PSoC4/cyfitter_cfg.c **** 
 216:Generated_Source\PSoC4/cyfitter_cfg.c **** 	/* Setup and trim IMO based on desired frequency. */
 217:Generated_Source\PSoC4/cyfitter_cfg.c **** 	CySysClkWriteImoFreq(24u);
 149              		.loc 1 217 0
 150 000e 1820     		movs	r0, #24
 151 0010 FFF7FEFF 		bl	CySysClkWriteImoFreq
 152              	.LVL15:
 218:Generated_Source\PSoC4/cyfitter_cfg.c **** 
 219:Generated_Source\PSoC4/cyfitter_cfg.c **** 	/* Disable HALF_EN since it is not required at this IMO frequency. */
 220:Generated_Source\PSoC4/cyfitter_cfg.c **** 	CY_SET_REG32((void CYXDATA *)(CYREG_CLK_SELECT), (CY_GET_REG32((void *)CYREG_CLK_SELECT) & 0xFFFBF
 153              		.loc 1 220 0
 154 0014 2268     		ldr	r2, [r4]
 155 0016 124B     		ldr	r3, .L8+4
 156 0018 1340     		ands	r3, r2
 157 001a 2360     		str	r3, [r4]
 221:Generated_Source\PSoC4/cyfitter_cfg.c **** 	/* CYDEV_CLK_ILO_CONFIG Starting address: CYDEV_CLK_ILO_CONFIG */
 222:Generated_Source\PSoC4/cyfitter_cfg.c **** 	CY_SET_REG32((void *)(CYREG_CLK_ILO_CONFIG), 0x80000006u);
 158              		.loc 1 222 0
 159 001c 114A     		ldr	r2, .L8+8
 160 001e 124B     		ldr	r3, .L8+12
 161 0020 1A60     		str	r2, [r3]
 223:Generated_Source\PSoC4/cyfitter_cfg.c **** 
 224:Generated_Source\PSoC4/cyfitter_cfg.c **** 
 225:Generated_Source\PSoC4/cyfitter_cfg.c **** 	/* CYDEV_CLK_SELECT00 Starting address: CYDEV_CLK_SELECT00 */
 226:Generated_Source\PSoC4/cyfitter_cfg.c **** 	CY_SET_REG32((void *)(CYREG_CLK_SELECT03), 0x00000010u);
 162              		.loc 1 226 0
 163 0022 1022     		movs	r2, #16
 164 0024 114B     		ldr	r3, .L8+16
 165 0026 1A60     		str	r2, [r3]
 227:Generated_Source\PSoC4/cyfitter_cfg.c **** 	CY_SET_REG32((void *)(CYREG_CLK_SELECT07), 0x00000020u);
 166              		.loc 1 227 0
ARM GAS  C:\Users\yura\AppData\Local\Temp\ccTVbRsY.s 			page 8


 167 0028 1032     		adds	r2, r2, #16
 168 002a 114B     		ldr	r3, .L8+20
 169 002c 1A60     		str	r2, [r3]
 228:Generated_Source\PSoC4/cyfitter_cfg.c **** 
 229:Generated_Source\PSoC4/cyfitter_cfg.c **** 	/* CYDEV_CLK_IMO_CONFIG Starting address: CYDEV_CLK_IMO_CONFIG */
 230:Generated_Source\PSoC4/cyfitter_cfg.c **** 	CY_SET_REG32((void *)(CYREG_CLK_IMO_CONFIG), 0x82000000u);
 170              		.loc 1 230 0
 171 002e 8222     		movs	r2, #130
 172 0030 1206     		lsls	r2, r2, #24
 173 0032 104B     		ldr	r3, .L8+24
 174 0034 1A60     		str	r2, [r3]
 231:Generated_Source\PSoC4/cyfitter_cfg.c **** 
 232:Generated_Source\PSoC4/cyfitter_cfg.c **** 	/* CYDEV_CLK_SELECT Starting address: CYDEV_CLK_SELECT */
 233:Generated_Source\PSoC4/cyfitter_cfg.c **** 	CY_SET_REG32((void *)(CYREG_CLK_SELECT), 0x00000000u);
 175              		.loc 1 233 0
 176 0036 0025     		movs	r5, #0
 177 0038 2560     		str	r5, [r4]
 234:Generated_Source\PSoC4/cyfitter_cfg.c **** 
 235:Generated_Source\PSoC4/cyfitter_cfg.c **** 	/* CYDEV_CLK_DIVIDER_A00 Starting address: CYDEV_CLK_DIVIDER_A00 */
 236:Generated_Source\PSoC4/cyfitter_cfg.c **** 	CY_SET_REG32((void *)(CYREG_CLK_DIVIDER_A00), 0x8000000Eu);
 178              		.loc 1 236 0
 179 003a 0F4A     		ldr	r2, .L8+28
 180 003c 0F4B     		ldr	r3, .L8+32
 181 003e 1A60     		str	r2, [r3]
 237:Generated_Source\PSoC4/cyfitter_cfg.c **** 
 238:Generated_Source\PSoC4/cyfitter_cfg.c **** 	/* CYDEV_CLK_DIVIDER_B00 Starting address: CYDEV_CLK_DIVIDER_B00 */
 239:Generated_Source\PSoC4/cyfitter_cfg.c **** 	CY_SET_REG32((void *)(CYREG_CLK_DIVIDER_B00), 0x80000016u);
 182              		.loc 1 239 0
 183 0040 0F4A     		ldr	r2, .L8+36
 184 0042 104B     		ldr	r3, .L8+40
 185 0044 1A60     		str	r2, [r3]
 240:Generated_Source\PSoC4/cyfitter_cfg.c **** 
 241:Generated_Source\PSoC4/cyfitter_cfg.c **** 	(void)CyIntSetVector(9u, &CySysWdtIsr);
 186              		.loc 1 241 0
 187 0046 1049     		ldr	r1, .L8+44
 188 0048 0920     		movs	r0, #9
 189 004a FFF7FEFF 		bl	CyIntSetVector
 190              	.LVL16:
 242:Generated_Source\PSoC4/cyfitter_cfg.c **** 	CyIntEnable(9u);
 191              		.loc 1 242 0
 192 004e 0920     		movs	r0, #9
 193 0050 FFF7FEFF 		bl	CyIntEnable
 194              	.LVL17:
 243:Generated_Source\PSoC4/cyfitter_cfg.c **** 	CY_SET_REG32((void *)(CYREG_WDT_CONFIG), 0x00000000u);
 195              		.loc 1 243 0
 196 0054 0D4B     		ldr	r3, .L8+48
 197 0056 1D60     		str	r5, [r3]
 244:Generated_Source\PSoC4/cyfitter_cfg.c **** }
 198              		.loc 1 244 0
 199              		@ sp needed
 200 0058 70BD     		pop	{r4, r5, r6, pc}
 201              	.L9:
 202 005a C046     		.align	2
 203              	.L8:
 204 005c 00010B40 		.word	1074462976
 205 0060 FFFFFBFF 		.word	-262145
 206 0064 06000080 		.word	-2147483642
ARM GAS  C:\Users\yura\AppData\Local\Temp\ccTVbRsY.s 			page 9


 207 0068 04010B40 		.word	1074462980
 208 006c 0C020240 		.word	1073873420
 209 0070 1C020240 		.word	1073873436
 210 0074 08010B40 		.word	1074462984
 211 0078 0E000080 		.word	-2147483634
 212 007c 00000240 		.word	1073872896
 213 0080 16000080 		.word	-2147483626
 214 0084 40000240 		.word	1073872960
 215 0088 00000000 		.word	CySysWdtIsr
 216 008c 0C020B40 		.word	1074463244
 217              		.cfi_endproc
 218              	.LFE4:
 219              		.size	ClockSetup, .-ClockSetup
 220              		.section	.text.SetAnalogRoutingPumps,"ax",%progbits
 221              		.align	2
 222              		.global	SetAnalogRoutingPumps
 223              		.code	16
 224              		.thumb_func
 225              		.type	SetAnalogRoutingPumps, %function
 226              	SetAnalogRoutingPumps:
 227              	.LFB6:
 245:Generated_Source\PSoC4/cyfitter_cfg.c **** 
 246:Generated_Source\PSoC4/cyfitter_cfg.c **** 
 247:Generated_Source\PSoC4/cyfitter_cfg.c **** /* Analog API Functions */
 248:Generated_Source\PSoC4/cyfitter_cfg.c **** 
 249:Generated_Source\PSoC4/cyfitter_cfg.c **** 
 250:Generated_Source\PSoC4/cyfitter_cfg.c **** /*******************************************************************************
 251:Generated_Source\PSoC4/cyfitter_cfg.c **** * Function Name: AnalogSetDefault
 252:Generated_Source\PSoC4/cyfitter_cfg.c **** ********************************************************************************
 253:Generated_Source\PSoC4/cyfitter_cfg.c **** *
 254:Generated_Source\PSoC4/cyfitter_cfg.c **** * Summary:
 255:Generated_Source\PSoC4/cyfitter_cfg.c **** *  Sets up the analog portions of the chip to default values based on chip
 256:Generated_Source\PSoC4/cyfitter_cfg.c **** *  configuration options from the project.
 257:Generated_Source\PSoC4/cyfitter_cfg.c **** *
 258:Generated_Source\PSoC4/cyfitter_cfg.c **** * Parameters:
 259:Generated_Source\PSoC4/cyfitter_cfg.c **** *  void
 260:Generated_Source\PSoC4/cyfitter_cfg.c **** *
 261:Generated_Source\PSoC4/cyfitter_cfg.c **** * Return:
 262:Generated_Source\PSoC4/cyfitter_cfg.c **** *  void
 263:Generated_Source\PSoC4/cyfitter_cfg.c **** *
 264:Generated_Source\PSoC4/cyfitter_cfg.c **** *******************************************************************************/
 265:Generated_Source\PSoC4/cyfitter_cfg.c **** static void AnalogSetDefault(void);
 266:Generated_Source\PSoC4/cyfitter_cfg.c **** static void AnalogSetDefault(void)
 267:Generated_Source\PSoC4/cyfitter_cfg.c **** {
 268:Generated_Source\PSoC4/cyfitter_cfg.c **** 	CY_SET_XTND_REG32((void CYFAR *)CYREG_SAR_MUX_SWITCH0, 0x00000001u);
 269:Generated_Source\PSoC4/cyfitter_cfg.c **** 	SetAnalogRoutingPumps(1);
 270:Generated_Source\PSoC4/cyfitter_cfg.c **** }
 271:Generated_Source\PSoC4/cyfitter_cfg.c **** 
 272:Generated_Source\PSoC4/cyfitter_cfg.c **** 
 273:Generated_Source\PSoC4/cyfitter_cfg.c **** /*******************************************************************************
 274:Generated_Source\PSoC4/cyfitter_cfg.c **** * Function Name: SetAnalogRoutingPumps
 275:Generated_Source\PSoC4/cyfitter_cfg.c **** ********************************************************************************
 276:Generated_Source\PSoC4/cyfitter_cfg.c **** *
 277:Generated_Source\PSoC4/cyfitter_cfg.c **** * Summary:
 278:Generated_Source\PSoC4/cyfitter_cfg.c **** * Enables or disables the analog pumps feeding analog routing switches.
 279:Generated_Source\PSoC4/cyfitter_cfg.c **** * Intended to be called at startup, based on the Vdda system configuration;
 280:Generated_Source\PSoC4/cyfitter_cfg.c **** * may be called during operation when the user informs us that the Vdda voltage crossed the pump th
ARM GAS  C:\Users\yura\AppData\Local\Temp\ccTVbRsY.s 			page 10


 281:Generated_Source\PSoC4/cyfitter_cfg.c **** *
 282:Generated_Source\PSoC4/cyfitter_cfg.c **** * Parameters:
 283:Generated_Source\PSoC4/cyfitter_cfg.c **** *  enabled - 1 to enable the pumps, 0 to disable the pumps
 284:Generated_Source\PSoC4/cyfitter_cfg.c **** *
 285:Generated_Source\PSoC4/cyfitter_cfg.c **** * Return:
 286:Generated_Source\PSoC4/cyfitter_cfg.c **** *  void
 287:Generated_Source\PSoC4/cyfitter_cfg.c **** *
 288:Generated_Source\PSoC4/cyfitter_cfg.c **** *******************************************************************************/
 289:Generated_Source\PSoC4/cyfitter_cfg.c **** void SetAnalogRoutingPumps(uint8 enabled)
 290:Generated_Source\PSoC4/cyfitter_cfg.c **** {
 228              		.loc 1 290 0
 229              		.cfi_startproc
 230              		@ args = 0, pretend = 0, frame = 0
 231              		@ frame_needed = 0, uses_anonymous_args = 0
 232              		@ link register save eliminated.
 233              	.LVL18:
 291:Generated_Source\PSoC4/cyfitter_cfg.c **** 	uint32 regValue = CY_GET_XTND_REG32((void *)(CYREG_SAR_PUMP_CTRL));
 234              		.loc 1 291 0
 235 0000 064B     		ldr	r3, .L13
 236 0002 1B68     		ldr	r3, [r3]
 237              	.LVL19:
 292:Generated_Source\PSoC4/cyfitter_cfg.c **** 	if (enabled != 0u)
 238              		.loc 1 292 0
 239 0004 0028     		cmp	r0, #0
 240 0006 03D0     		beq	.L11
 293:Generated_Source\PSoC4/cyfitter_cfg.c **** 	{
 294:Generated_Source\PSoC4/cyfitter_cfg.c **** 		regValue |= 0x80000000u;
 241              		.loc 1 294 0
 242 0008 8022     		movs	r2, #128
 243 000a 1206     		lsls	r2, r2, #24
 244 000c 1343     		orrs	r3, r2
 245              	.LVL20:
 246 000e 01E0     		b	.L12
 247              	.L11:
 295:Generated_Source\PSoC4/cyfitter_cfg.c **** 	}
 296:Generated_Source\PSoC4/cyfitter_cfg.c **** 	else
 297:Generated_Source\PSoC4/cyfitter_cfg.c **** 	{
 298:Generated_Source\PSoC4/cyfitter_cfg.c **** 		regValue &= ~0x80000000u;
 248              		.loc 1 298 0
 249 0010 5B00     		lsls	r3, r3, #1
 250              	.LVL21:
 251 0012 5B08     		lsrs	r3, r3, #1
 252              	.LVL22:
 253              	.L12:
 299:Generated_Source\PSoC4/cyfitter_cfg.c **** 	}
 300:Generated_Source\PSoC4/cyfitter_cfg.c **** 	CY_SET_XTND_REG32((void *)(CYREG_SAR_PUMP_CTRL), regValue);
 254              		.loc 1 300 0
 255 0014 014A     		ldr	r2, .L13
 256 0016 1360     		str	r3, [r2]
 301:Generated_Source\PSoC4/cyfitter_cfg.c **** }
 257              		.loc 1 301 0
 258              		@ sp needed
 259 0018 7047     		bx	lr
 260              	.L14:
 261 001a C046     		.align	2
 262              	.L13:
 263 001c 80031A40 		.word	1075446656
ARM GAS  C:\Users\yura\AppData\Local\Temp\ccTVbRsY.s 			page 11


 264              		.cfi_endproc
 265              	.LFE6:
 266              		.size	SetAnalogRoutingPumps, .-SetAnalogRoutingPumps
 267              		.section	.text.AnalogSetDefault,"ax",%progbits
 268              		.align	2
 269              		.code	16
 270              		.thumb_func
 271              		.type	AnalogSetDefault, %function
 272              	AnalogSetDefault:
 273              	.LFB5:
 267:Generated_Source\PSoC4/cyfitter_cfg.c **** 	CY_SET_XTND_REG32((void CYFAR *)CYREG_SAR_MUX_SWITCH0, 0x00000001u);
 274              		.loc 1 267 0
 275              		.cfi_startproc
 276              		@ args = 0, pretend = 0, frame = 0
 277              		@ frame_needed = 0, uses_anonymous_args = 0
 278 0000 10B5     		push	{r4, lr}
 279              		.cfi_def_cfa_offset 8
 280              		.cfi_offset 4, -8
 281              		.cfi_offset 14, -4
 268:Generated_Source\PSoC4/cyfitter_cfg.c **** 	SetAnalogRoutingPumps(1);
 282              		.loc 1 268 0
 283 0002 0122     		movs	r2, #1
 284 0004 024B     		ldr	r3, .L16
 285 0006 1A60     		str	r2, [r3]
 269:Generated_Source\PSoC4/cyfitter_cfg.c **** }
 286              		.loc 1 269 0
 287 0008 0120     		movs	r0, #1
 288 000a FFF7FEFF 		bl	SetAnalogRoutingPumps
 289              	.LVL23:
 270:Generated_Source\PSoC4/cyfitter_cfg.c **** 
 290              		.loc 1 270 0
 291              		@ sp needed
 292 000e 10BD     		pop	{r4, pc}
 293              	.L17:
 294              		.align	2
 295              	.L16:
 296 0010 00031A40 		.word	1075446528
 297              		.cfi_endproc
 298              	.LFE5:
 299              		.size	AnalogSetDefault, .-AnalogSetDefault
 300              		.section	.psocinit
 301              		.align	2
 302              		.global	cyfitter_cfg
 303              		.code	16
 304              		.thumb_func
 305              		.type	cyfitter_cfg, %function
 306              	cyfitter_cfg:
 307              	.LFB7:
 302:Generated_Source\PSoC4/cyfitter_cfg.c **** 
 303:Generated_Source\PSoC4/cyfitter_cfg.c **** 
 304:Generated_Source\PSoC4/cyfitter_cfg.c **** 
 305:Generated_Source\PSoC4/cyfitter_cfg.c **** 
 306:Generated_Source\PSoC4/cyfitter_cfg.c **** /*******************************************************************************
 307:Generated_Source\PSoC4/cyfitter_cfg.c **** * Function Name: cyfitter_cfg
 308:Generated_Source\PSoC4/cyfitter_cfg.c **** ********************************************************************************
 309:Generated_Source\PSoC4/cyfitter_cfg.c **** * Summary:
 310:Generated_Source\PSoC4/cyfitter_cfg.c **** *  This function is called by the start-up code for the selected device. It
ARM GAS  C:\Users\yura\AppData\Local\Temp\ccTVbRsY.s 			page 12


 311:Generated_Source\PSoC4/cyfitter_cfg.c **** *  performs all of the necessary device configuration based on the design
 312:Generated_Source\PSoC4/cyfitter_cfg.c **** *  settings.  This includes settings from the Design Wide Resources (DWR) such
 313:Generated_Source\PSoC4/cyfitter_cfg.c **** *  as Clocks and Pins as well as any component configuration that is necessary.
 314:Generated_Source\PSoC4/cyfitter_cfg.c **** *
 315:Generated_Source\PSoC4/cyfitter_cfg.c **** * Parameters:
 316:Generated_Source\PSoC4/cyfitter_cfg.c **** *   void
 317:Generated_Source\PSoC4/cyfitter_cfg.c **** *
 318:Generated_Source\PSoC4/cyfitter_cfg.c **** * Return:
 319:Generated_Source\PSoC4/cyfitter_cfg.c **** *   void
 320:Generated_Source\PSoC4/cyfitter_cfg.c **** *
 321:Generated_Source\PSoC4/cyfitter_cfg.c **** *******************************************************************************/
 322:Generated_Source\PSoC4/cyfitter_cfg.c **** CY_CFG_SECTION
 323:Generated_Source\PSoC4/cyfitter_cfg.c **** void cyfitter_cfg(void)
 324:Generated_Source\PSoC4/cyfitter_cfg.c **** {
 308              		.loc 1 324 0
 309              		.cfi_startproc
 310              		@ args = 0, pretend = 0, frame = 0
 311              		@ frame_needed = 0, uses_anonymous_args = 0
 312 0090 10B5     		push	{r4, lr}
 313              		.cfi_def_cfa_offset 8
 314              		.cfi_offset 4, -8
 315              		.cfi_offset 14, -4
 325:Generated_Source\PSoC4/cyfitter_cfg.c **** 	/* Disable interrupts by default. Let user enable if/when they want. */
 326:Generated_Source\PSoC4/cyfitter_cfg.c **** 	CyGlobalIntDisable;
 316              		.loc 1 326 0
 317              		.syntax divided
 318              	@ 326 "Generated_Source\PSoC4\cyfitter_cfg.c" 1
 319 0092 72B6     		CPSID   i
 320              	@ 0 "" 2
 321              	.LVL24:
 322              		.thumb
 323              		.syntax unified
 324              	.LBB3:
 327:Generated_Source\PSoC4/cyfitter_cfg.c **** 
 328:Generated_Source\PSoC4/cyfitter_cfg.c **** 	{
 329:Generated_Source\PSoC4/cyfitter_cfg.c **** 		static const uint32 CYCODE cy_cfg_addr_table[] = {
 330:Generated_Source\PSoC4/cyfitter_cfg.c **** 			0x400F3102u, /* Base address: 0x400F3100 Count: 2 */
 331:Generated_Source\PSoC4/cyfitter_cfg.c **** 			0x400F320Eu, /* Base address: 0x400F3200 Count: 14 */
 332:Generated_Source\PSoC4/cyfitter_cfg.c **** 			0x400F3312u, /* Base address: 0x400F3300 Count: 18 */
 333:Generated_Source\PSoC4/cyfitter_cfg.c **** 			0x400F4008u, /* Base address: 0x400F4000 Count: 8 */
 334:Generated_Source\PSoC4/cyfitter_cfg.c **** 			0x400F410Bu, /* Base address: 0x400F4100 Count: 11 */
 335:Generated_Source\PSoC4/cyfitter_cfg.c **** 			0x400F430Bu, /* Base address: 0x400F4300 Count: 11 */
 336:Generated_Source\PSoC4/cyfitter_cfg.c **** 		};
 337:Generated_Source\PSoC4/cyfitter_cfg.c **** 
 338:Generated_Source\PSoC4/cyfitter_cfg.c **** 		static const cy_cfg_addrvalue_t CYCODE cy_cfg_data_table[] = {
 339:Generated_Source\PSoC4/cyfitter_cfg.c **** 			{0x8Cu, 0x08u},
 340:Generated_Source\PSoC4/cyfitter_cfg.c **** 			{0xE4u, 0x10u},
 341:Generated_Source\PSoC4/cyfitter_cfg.c **** 			{0x08u, 0x01u},
 342:Generated_Source\PSoC4/cyfitter_cfg.c **** 			{0x14u, 0x02u},
 343:Generated_Source\PSoC4/cyfitter_cfg.c **** 			{0x1Cu, 0x04u},
 344:Generated_Source\PSoC4/cyfitter_cfg.c **** 			{0x30u, 0x01u},
 345:Generated_Source\PSoC4/cyfitter_cfg.c **** 			{0x32u, 0x04u},
 346:Generated_Source\PSoC4/cyfitter_cfg.c **** 			{0x34u, 0x02u},
 347:Generated_Source\PSoC4/cyfitter_cfg.c **** 			{0x3Eu, 0x15u},
 348:Generated_Source\PSoC4/cyfitter_cfg.c **** 			{0x58u, 0x04u},
 349:Generated_Source\PSoC4/cyfitter_cfg.c **** 			{0x5Fu, 0x01u},
 350:Generated_Source\PSoC4/cyfitter_cfg.c **** 			{0x81u, 0x01u},
ARM GAS  C:\Users\yura\AppData\Local\Temp\ccTVbRsY.s 			page 13


 351:Generated_Source\PSoC4/cyfitter_cfg.c **** 			{0xB1u, 0x01u},
 352:Generated_Source\PSoC4/cyfitter_cfg.c **** 			{0xBFu, 0x01u},
 353:Generated_Source\PSoC4/cyfitter_cfg.c **** 			{0xD9u, 0x04u},
 354:Generated_Source\PSoC4/cyfitter_cfg.c **** 			{0xDFu, 0x01u},
 355:Generated_Source\PSoC4/cyfitter_cfg.c **** 			{0x06u, 0x08u},
 356:Generated_Source\PSoC4/cyfitter_cfg.c **** 			{0x0Cu, 0x08u},
 357:Generated_Source\PSoC4/cyfitter_cfg.c **** 			{0x0Du, 0x80u},
 358:Generated_Source\PSoC4/cyfitter_cfg.c **** 			{0x1Du, 0x0Au},
 359:Generated_Source\PSoC4/cyfitter_cfg.c **** 			{0x1Fu, 0x10u},
 360:Generated_Source\PSoC4/cyfitter_cfg.c **** 			{0x20u, 0x40u},
 361:Generated_Source\PSoC4/cyfitter_cfg.c **** 			{0x38u, 0x01u},
 362:Generated_Source\PSoC4/cyfitter_cfg.c **** 			{0x81u, 0x02u},
 363:Generated_Source\PSoC4/cyfitter_cfg.c **** 			{0x87u, 0x10u},
 364:Generated_Source\PSoC4/cyfitter_cfg.c **** 			{0x89u, 0x88u},
 365:Generated_Source\PSoC4/cyfitter_cfg.c **** 			{0x8Cu, 0x41u},
 366:Generated_Source\PSoC4/cyfitter_cfg.c **** 			{0x9Au, 0x08u},
 367:Generated_Source\PSoC4/cyfitter_cfg.c **** 			{0xA0u, 0x08u},
 368:Generated_Source\PSoC4/cyfitter_cfg.c **** 			{0xAAu, 0x08u},
 369:Generated_Source\PSoC4/cyfitter_cfg.c **** 			{0xC0u, 0x40u},
 370:Generated_Source\PSoC4/cyfitter_cfg.c **** 			{0xC2u, 0xA0u},
 371:Generated_Source\PSoC4/cyfitter_cfg.c **** 			{0xCEu, 0x01u},
 372:Generated_Source\PSoC4/cyfitter_cfg.c **** 			{0xE6u, 0x20u},
 373:Generated_Source\PSoC4/cyfitter_cfg.c **** 			{0x09u, 0x80u},
 374:Generated_Source\PSoC4/cyfitter_cfg.c **** 			{0x0Au, 0x10u},
 375:Generated_Source\PSoC4/cyfitter_cfg.c **** 			{0x51u, 0x10u},
 376:Generated_Source\PSoC4/cyfitter_cfg.c **** 			{0x67u, 0x40u},
 377:Generated_Source\PSoC4/cyfitter_cfg.c **** 			{0x8Eu, 0x10u},
 378:Generated_Source\PSoC4/cyfitter_cfg.c **** 			{0xC2u, 0x50u},
 379:Generated_Source\PSoC4/cyfitter_cfg.c **** 			{0xD4u, 0x20u},
 380:Generated_Source\PSoC4/cyfitter_cfg.c **** 			{0xD8u, 0x80u},
 381:Generated_Source\PSoC4/cyfitter_cfg.c **** 			{0x5Fu, 0x80u},
 382:Generated_Source\PSoC4/cyfitter_cfg.c **** 			{0x83u, 0x80u},
 383:Generated_Source\PSoC4/cyfitter_cfg.c **** 			{0x87u, 0x40u},
 384:Generated_Source\PSoC4/cyfitter_cfg.c **** 			{0x89u, 0x10u},
 385:Generated_Source\PSoC4/cyfitter_cfg.c **** 			{0x95u, 0x20u},
 386:Generated_Source\PSoC4/cyfitter_cfg.c **** 			{0x97u, 0x40u},
 387:Generated_Source\PSoC4/cyfitter_cfg.c **** 			{0xA9u, 0x80u},
 388:Generated_Source\PSoC4/cyfitter_cfg.c **** 			{0xD6u, 0x20u},
 389:Generated_Source\PSoC4/cyfitter_cfg.c **** 			{0xE2u, 0x80u},
 390:Generated_Source\PSoC4/cyfitter_cfg.c **** 			{0xE6u, 0x40u},
 391:Generated_Source\PSoC4/cyfitter_cfg.c **** 			{0xECu, 0x80u},
 392:Generated_Source\PSoC4/cyfitter_cfg.c **** 			{0x09u, 0x10u},
 393:Generated_Source\PSoC4/cyfitter_cfg.c **** 			{0x0Bu, 0x20u},
 394:Generated_Source\PSoC4/cyfitter_cfg.c **** 			{0x60u, 0x20u},
 395:Generated_Source\PSoC4/cyfitter_cfg.c **** 			{0x8Bu, 0x10u},
 396:Generated_Source\PSoC4/cyfitter_cfg.c **** 			{0x8Cu, 0x20u},
 397:Generated_Source\PSoC4/cyfitter_cfg.c **** 			{0x8Du, 0x10u},
 398:Generated_Source\PSoC4/cyfitter_cfg.c **** 			{0xC2u, 0x0Au},
 399:Generated_Source\PSoC4/cyfitter_cfg.c **** 			{0xD8u, 0x02u},
 400:Generated_Source\PSoC4/cyfitter_cfg.c **** 			{0xE0u, 0x02u},
 401:Generated_Source\PSoC4/cyfitter_cfg.c **** 			{0xE2u, 0x04u},
 402:Generated_Source\PSoC4/cyfitter_cfg.c **** 			{0xE6u, 0x08u},
 403:Generated_Source\PSoC4/cyfitter_cfg.c **** 		};
 404:Generated_Source\PSoC4/cyfitter_cfg.c **** 
 405:Generated_Source\PSoC4/cyfitter_cfg.c **** 
 406:Generated_Source\PSoC4/cyfitter_cfg.c **** 
 407:Generated_Source\PSoC4/cyfitter_cfg.c **** 		CYPACKED typedef struct {
ARM GAS  C:\Users\yura\AppData\Local\Temp\ccTVbRsY.s 			page 14


 408:Generated_Source\PSoC4/cyfitter_cfg.c **** 			void CYFAR *address;
 409:Generated_Source\PSoC4/cyfitter_cfg.c **** 			uint16 size;
 410:Generated_Source\PSoC4/cyfitter_cfg.c **** 		} CYPACKED_ATTR cfg_memset_t;
 411:Generated_Source\PSoC4/cyfitter_cfg.c **** 
 412:Generated_Source\PSoC4/cyfitter_cfg.c **** 		static const cfg_memset_t CYCODE cfg_memset_list[] = {
 413:Generated_Source\PSoC4/cyfitter_cfg.c **** 			/* address, size */
 414:Generated_Source\PSoC4/cyfitter_cfg.c **** 			{(void CYFAR *)(CYDEV_UDB_P0_U0_BASE), 1024u},
 415:Generated_Source\PSoC4/cyfitter_cfg.c **** 			{(void CYFAR *)(CYDEV_UDB_DSI0_BASE), 1024u},
 416:Generated_Source\PSoC4/cyfitter_cfg.c **** 		};
 417:Generated_Source\PSoC4/cyfitter_cfg.c **** 
 418:Generated_Source\PSoC4/cyfitter_cfg.c **** 		uint8 CYDATA i;
 419:Generated_Source\PSoC4/cyfitter_cfg.c **** 
 420:Generated_Source\PSoC4/cyfitter_cfg.c **** 		/* Zero out critical memory blocks before beginning configuration */
 421:Generated_Source\PSoC4/cyfitter_cfg.c **** 		for (i = 0u; i < (sizeof(cfg_memset_list)/sizeof(cfg_memset_list[0])); i++)
 325              		.loc 1 421 0
 326 0094 0024     		movs	r4, #0
 327 0096 0FE0     		b	.L19
 328              	.LVL25:
 329              	.L20:
 330              	.LBB4:
 422:Generated_Source\PSoC4/cyfitter_cfg.c **** 		{
 423:Generated_Source\PSoC4/cyfitter_cfg.c **** 			const cfg_memset_t CYCODE * CYDATA ms = &cfg_memset_list[i];
 424:Generated_Source\PSoC4/cyfitter_cfg.c **** 			CYMEMZERO(ms->address, (size_t)(uint32)(ms->size));
 331              		.loc 1 424 0 discriminator 3
 332 0098 3048     		ldr	r0, .L21
 333 009a 6200     		lsls	r2, r4, #1
 334 009c 1319     		adds	r3, r2, r4
 335 009e 5900     		lsls	r1, r3, #1
 336 00a0 0B00     		movs	r3, r1
 337 00a2 4118     		adds	r1, r0, r1
 338 00a4 8988     		ldrh	r1, [r1, #4]
 339 00a6 1A5A     		ldrh	r2, [r3, r0]
 340 00a8 C318     		adds	r3, r0, r3
 341 00aa 5888     		ldrh	r0, [r3, #2]
 342 00ac 0004     		lsls	r0, r0, #16
 343 00ae 1043     		orrs	r0, r2
 344 00b0 FFF7FEFF 		bl	CYMEMZERO
 345              	.LVL26:
 346              	.LBE4:
 421:Generated_Source\PSoC4/cyfitter_cfg.c **** 		{
 347              		.loc 1 421 0 discriminator 3
 348 00b4 0134     		adds	r4, r4, #1
 349              	.LVL27:
 350 00b6 E4B2     		uxtb	r4, r4
 351              	.LVL28:
 352              	.L19:
 421:Generated_Source\PSoC4/cyfitter_cfg.c **** 		{
 353              		.loc 1 421 0 is_stmt 0 discriminator 1
 354 00b8 012C     		cmp	r4, #1
 355 00ba EDD9     		bls	.L20
 425:Generated_Source\PSoC4/cyfitter_cfg.c **** 		}
 426:Generated_Source\PSoC4/cyfitter_cfg.c **** 
 427:Generated_Source\PSoC4/cyfitter_cfg.c **** 		cfg_write_bytes32(cy_cfg_addr_table, cy_cfg_data_table);
 356              		.loc 1 427 0 is_stmt 1
 357 00bc 2749     		ldr	r1, .L21
 358 00be 0C31     		adds	r1, r1, #12
 359 00c0 2748     		ldr	r0, .L21+4
ARM GAS  C:\Users\yura\AppData\Local\Temp\ccTVbRsY.s 			page 15


 360 00c2 0C30     		adds	r0, r0, #12
 361 00c4 FFF7FEFF 		bl	cfg_write_bytes32
 362              	.LVL29:
 428:Generated_Source\PSoC4/cyfitter_cfg.c **** 
 429:Generated_Source\PSoC4/cyfitter_cfg.c **** 		/* HSIOM Starting address: CYDEV_HSIOM_BASE */
 430:Generated_Source\PSoC4/cyfitter_cfg.c **** 		CY_SET_REG32((void *)(CYDEV_HSIOM_BASE), 0x00300003u);
 363              		.loc 1 430 0
 364 00c8 264A     		ldr	r2, .L21+8
 365 00ca 274B     		ldr	r3, .L21+12
 366 00cc 1A60     		str	r2, [r3]
 431:Generated_Source\PSoC4/cyfitter_cfg.c **** 		CY_SET_REG32((void *)(CYREG_HSIOM_PORT_SEL1), 0x00000003u);
 367              		.loc 1 431 0
 368 00ce 0322     		movs	r2, #3
 369 00d0 264B     		ldr	r3, .L21+16
 370 00d2 1A60     		str	r2, [r3]
 432:Generated_Source\PSoC4/cyfitter_cfg.c **** 		CY_SET_REG32((void *)(CYREG_HSIOM_PORT_SEL3), 0x3000EEEEu);
 371              		.loc 1 432 0
 372 00d4 264A     		ldr	r2, .L21+20
 373 00d6 274B     		ldr	r3, .L21+24
 374 00d8 1A60     		str	r2, [r3]
 433:Generated_Source\PSoC4/cyfitter_cfg.c **** 
 434:Generated_Source\PSoC4/cyfitter_cfg.c **** 		/* UDB_PA_0 Starting address: CYDEV_UDB_PA0_BASE */
 435:Generated_Source\PSoC4/cyfitter_cfg.c **** 		CY_SET_REG32((void *)(CYDEV_UDB_PA0_BASE), 0x00990000u);
 375              		.loc 1 435 0
 376 00da 9923     		movs	r3, #153
 377 00dc 1B04     		lsls	r3, r3, #16
 378 00de 264A     		ldr	r2, .L21+28
 379 00e0 1360     		str	r3, [r2]
 436:Generated_Source\PSoC4/cyfitter_cfg.c **** 		CY_SET_REG32((void *)(CYREG_UDB_PA0_CFG8), 0x0C540000u);
 380              		.loc 1 436 0
 381 00e2 2649     		ldr	r1, .L21+32
 382 00e4 264A     		ldr	r2, .L21+36
 383 00e6 1160     		str	r1, [r2]
 437:Generated_Source\PSoC4/cyfitter_cfg.c **** 
 438:Generated_Source\PSoC4/cyfitter_cfg.c **** 		/* UDB_PA_1 Starting address: CYDEV_UDB_PA1_BASE */
 439:Generated_Source\PSoC4/cyfitter_cfg.c **** 		CY_SET_REG32((void *)(CYDEV_UDB_PA1_BASE), 0x00990000u);
 384              		.loc 1 439 0
 385 00e8 264A     		ldr	r2, .L21+40
 386 00ea 1360     		str	r3, [r2]
 440:Generated_Source\PSoC4/cyfitter_cfg.c **** 		CY_SET_REG32((void *)(CYREG_UDB_PA1_CFG8), 0x00030000u);
 387              		.loc 1 440 0
 388 00ec C021     		movs	r1, #192
 389 00ee 8902     		lsls	r1, r1, #10
 390 00f0 254A     		ldr	r2, .L21+44
 391 00f2 1160     		str	r1, [r2]
 441:Generated_Source\PSoC4/cyfitter_cfg.c **** 
 442:Generated_Source\PSoC4/cyfitter_cfg.c **** 		/* UDB_PA_2 Starting address: CYDEV_UDB_PA2_BASE */
 443:Generated_Source\PSoC4/cyfitter_cfg.c **** 		CY_SET_REG32((void *)(CYDEV_UDB_PA2_BASE), 0x00990000u);
 392              		.loc 1 443 0
 393 00f4 254A     		ldr	r2, .L21+48
 394 00f6 1360     		str	r3, [r2]
 444:Generated_Source\PSoC4/cyfitter_cfg.c **** 
 445:Generated_Source\PSoC4/cyfitter_cfg.c **** 		/* UDB_PA_3 Starting address: CYDEV_UDB_PA3_BASE */
 446:Generated_Source\PSoC4/cyfitter_cfg.c **** 		CY_SET_REG32((void *)(CYDEV_UDB_PA3_BASE), 0x00990000u);
 395              		.loc 1 446 0
 396 00f8 254A     		ldr	r2, .L21+52
 397 00fa 1360     		str	r3, [r2]
ARM GAS  C:\Users\yura\AppData\Local\Temp\ccTVbRsY.s 			page 16


 447:Generated_Source\PSoC4/cyfitter_cfg.c **** 		CY_SET_REG32((void *)(CYREG_UDB_PA3_CFG8), 0x80000000u);
 398              		.loc 1 447 0
 399 00fc 8022     		movs	r2, #128
 400 00fe 1206     		lsls	r2, r2, #24
 401 0100 244B     		ldr	r3, .L21+56
 402 0102 1A60     		str	r2, [r3]
 448:Generated_Source\PSoC4/cyfitter_cfg.c **** 
 449:Generated_Source\PSoC4/cyfitter_cfg.c **** 		/* Enable UDB array and digital routing */
 450:Generated_Source\PSoC4/cyfitter_cfg.c **** 		CY_SET_XTND_REG8((void *)CYREG_UDB_UDBIF_WAIT_CFG, (uint8)((CY_GET_XTND_REG8((void *)CYREG_UDB_UD
 403              		.loc 1 450 0
 404 0104 2449     		ldr	r1, .L21+60
 405 0106 0B78     		ldrb	r3, [r1]
 406 0108 3C22     		movs	r2, #60
 407 010a 9343     		bics	r3, r2
 408 010c 1422     		movs	r2, #20
 409 010e 1343     		orrs	r3, r2
 410 0110 DBB2     		uxtb	r3, r3
 411 0112 0B70     		strb	r3, [r1]
 451:Generated_Source\PSoC4/cyfitter_cfg.c **** 		CY_SET_XTND_REG8((void *)CYREG_UDB_UDBIF_BANK_CTL, (uint8)(CY_GET_XTND_REG8((void *)CYREG_UDB_UDB
 412              		.loc 1 451 0
 413 0114 214A     		ldr	r2, .L21+64
 414 0116 1178     		ldrb	r1, [r2]
 415 0118 1623     		movs	r3, #22
 416 011a 0B43     		orrs	r3, r1
 417 011c DBB2     		uxtb	r3, r3
 418 011e 1370     		strb	r3, [r2]
 419              	.LBE3:
 452:Generated_Source\PSoC4/cyfitter_cfg.c **** 	}
 453:Generated_Source\PSoC4/cyfitter_cfg.c **** 
 454:Generated_Source\PSoC4/cyfitter_cfg.c **** 	/* Perform second pass device configuration. These items must be configured in specific order afte
 455:Generated_Source\PSoC4/cyfitter_cfg.c **** 	/* IOPINS0_0 Starting address: CYDEV_PRT0_BASE */
 456:Generated_Source\PSoC4/cyfitter_cfg.c **** 	CY_SET_REG32((void *)(CYDEV_PRT0_BASE), 0x00000071u);
 420              		.loc 1 456 0
 421 0120 7122     		movs	r2, #113
 422 0122 1F4B     		ldr	r3, .L21+68
 423 0124 1A60     		str	r2, [r3]
 457:Generated_Source\PSoC4/cyfitter_cfg.c **** 	CY_SET_REG32((void *)(CYREG_PRT0_PC), 0x000B2006u);
 424              		.loc 1 457 0
 425 0126 1F4A     		ldr	r2, .L21+72
 426 0128 1F4B     		ldr	r3, .L21+76
 427 012a 1A60     		str	r2, [r3]
 458:Generated_Source\PSoC4/cyfitter_cfg.c **** 
 459:Generated_Source\PSoC4/cyfitter_cfg.c **** 	/* IOPINS0_1 Starting address: CYDEV_PRT1_BASE */
 460:Generated_Source\PSoC4/cyfitter_cfg.c **** 	CY_SET_REG32((void *)(CYDEV_PRT1_BASE), 0x00000001u);
 428              		.loc 1 460 0
 429 012c 0123     		movs	r3, #1
 430 012e 1F4A     		ldr	r2, .L21+80
 431 0130 1360     		str	r3, [r2]
 461:Generated_Source\PSoC4/cyfitter_cfg.c **** 	CY_SET_REG32((void *)(CYREG_PRT1_PC), 0x00000006u);
 432              		.loc 1 461 0
 433 0132 0621     		movs	r1, #6
 434 0134 1E4A     		ldr	r2, .L21+84
 435 0136 1160     		str	r1, [r2]
 462:Generated_Source\PSoC4/cyfitter_cfg.c **** 
 463:Generated_Source\PSoC4/cyfitter_cfg.c **** 	/* IOPINS0_2 Starting address: CYDEV_PRT2_BASE */
 464:Generated_Source\PSoC4/cyfitter_cfg.c **** 	CY_SET_REG32((void *)(CYDEV_PRT2_BASE), 0x00000001u);
 436              		.loc 1 464 0
ARM GAS  C:\Users\yura\AppData\Local\Temp\ccTVbRsY.s 			page 17


 437 0138 1E4A     		ldr	r2, .L21+88
 438 013a 1360     		str	r3, [r2]
 465:Generated_Source\PSoC4/cyfitter_cfg.c **** 	CY_SET_REG32((void *)(CYREG_PRT2_PC), 0x00DB6DB0u);
 439              		.loc 1 465 0
 440 013c 1E49     		ldr	r1, .L21+92
 441 013e 1F4A     		ldr	r2, .L21+96
 442 0140 1160     		str	r1, [r2]
 466:Generated_Source\PSoC4/cyfitter_cfg.c **** 	CY_SET_REG32((void *)(CYREG_PRT2_PC2), 0x00000001u);
 443              		.loc 1 466 0
 444 0142 1F4A     		ldr	r2, .L21+100
 445 0144 1360     		str	r3, [r2]
 467:Generated_Source\PSoC4/cyfitter_cfg.c **** 
 468:Generated_Source\PSoC4/cyfitter_cfg.c **** 	/* IOPINS0_3 Starting address: CYDEV_PRT3_BASE */
 469:Generated_Source\PSoC4/cyfitter_cfg.c **** 	CY_SET_REG32((void *)(CYDEV_PRT3_BASE), 0x000000D3u);
 446              		.loc 1 469 0
 447 0146 D322     		movs	r2, #211
 448 0148 1E4B     		ldr	r3, .L21+104
 449 014a 1A60     		str	r2, [r3]
 470:Generated_Source\PSoC4/cyfitter_cfg.c **** 	CY_SET_REG32((void *)(CYREG_PRT3_PC), 0x00C82DA4u);
 450              		.loc 1 470 0
 451 014c 1E4A     		ldr	r2, .L21+108
 452 014e 1F4B     		ldr	r3, .L21+112
 453 0150 1A60     		str	r2, [r3]
 471:Generated_Source\PSoC4/cyfitter_cfg.c **** 
 472:Generated_Source\PSoC4/cyfitter_cfg.c **** 
 473:Generated_Source\PSoC4/cyfitter_cfg.c **** 	/* Setup clocks based on selections from Clock DWR */
 474:Generated_Source\PSoC4/cyfitter_cfg.c **** 	ClockSetup();
 454              		.loc 1 474 0
 455 0152 FFF755FF 		bl	ClockSetup
 456              	.LVL30:
 475:Generated_Source\PSoC4/cyfitter_cfg.c **** 
 476:Generated_Source\PSoC4/cyfitter_cfg.c **** 	/* Perform basic analog initialization to defaults */
 477:Generated_Source\PSoC4/cyfitter_cfg.c **** 	AnalogSetDefault();
 457              		.loc 1 477 0
 458 0156 FFF7FEFF 		bl	AnalogSetDefault
 459              	.LVL31:
 478:Generated_Source\PSoC4/cyfitter_cfg.c **** 
 479:Generated_Source\PSoC4/cyfitter_cfg.c **** }
 460              		.loc 1 479 0
 461              		@ sp needed
 462              	.LVL32:
 463 015a 10BD     		pop	{r4, pc}
 464              	.L22:
 465              		.align	2
 466              	.L21:
 467 015c 00000000 		.word	.LANCHOR0
 468 0160 80000000 		.word	.LANCHOR1
 469 0164 03003000 		.word	3145731
 470 0168 00000140 		.word	1073807360
 471 016c 04000140 		.word	1073807364
 472 0170 EEEE0030 		.word	805367534
 473 0174 0C000140 		.word	1073807372
 474 0178 00500F40 		.word	1074745344
 475 017c 0000540C 		.word	206831616
 476 0180 08500F40 		.word	1074745352
 477 0184 10500F40 		.word	1074745360
 478 0188 18500F40 		.word	1074745368
ARM GAS  C:\Users\yura\AppData\Local\Temp\ccTVbRsY.s 			page 18


 479 018c 20500F40 		.word	1074745376
 480 0190 30500F40 		.word	1074745392
 481 0194 38500F40 		.word	1074745400
 482 0198 01700F40 		.word	1074753537
 483 019c 00700F40 		.word	1074753536
 484 01a0 00000440 		.word	1074003968
 485 01a4 06200B00 		.word	729094
 486 01a8 08000440 		.word	1074003976
 487 01ac 00010440 		.word	1074004224
 488 01b0 08010440 		.word	1074004232
 489 01b4 00020440 		.word	1074004480
 490 01b8 B06DDB00 		.word	14380464
 491 01bc 08020440 		.word	1074004488
 492 01c0 18020440 		.word	1074004504
 493 01c4 00030440 		.word	1074004736
 494 01c8 A42DC800 		.word	13118884
 495 01cc 08030440 		.word	1074004744
 496              		.cfi_endproc
 497              	.LFE7:
 498              		.size	cyfitter_cfg, .-cyfitter_cfg
 499              		.section	.rodata
 500              		.align	2
 501              		.set	.LANCHOR0,. + 0
 502              		.set	.LANCHOR1,. + 128
 503              		.type	cfg_memset_list.4876, %object
 504              		.size	cfg_memset_list.4876, 12
 505              	cfg_memset_list.4876:
 506 0000 00300F40 		.word	1074737152
 507 0004 0004     		.short	1024
 508 0006 00400F40 		.4byte	1074741248
 509 000a 0004     		.short	1024
 510              		.type	cy_cfg_data_table.4871, %object
 511              		.size	cy_cfg_data_table.4871, 128
 512              	cy_cfg_data_table.4871:
 513 000c 8C       		.byte	-116
 514 000d 08       		.byte	8
 515 000e E4       		.byte	-28
 516 000f 10       		.byte	16
 517 0010 08       		.byte	8
 518 0011 01       		.byte	1
 519 0012 14       		.byte	20
 520 0013 02       		.byte	2
 521 0014 1C       		.byte	28
 522 0015 04       		.byte	4
 523 0016 30       		.byte	48
 524 0017 01       		.byte	1
 525 0018 32       		.byte	50
 526 0019 04       		.byte	4
 527 001a 34       		.byte	52
 528 001b 02       		.byte	2
 529 001c 3E       		.byte	62
 530 001d 15       		.byte	21
 531 001e 58       		.byte	88
 532 001f 04       		.byte	4
 533 0020 5F       		.byte	95
 534 0021 01       		.byte	1
 535 0022 81       		.byte	-127
ARM GAS  C:\Users\yura\AppData\Local\Temp\ccTVbRsY.s 			page 19


 536 0023 01       		.byte	1
 537 0024 B1       		.byte	-79
 538 0025 01       		.byte	1
 539 0026 BF       		.byte	-65
 540 0027 01       		.byte	1
 541 0028 D9       		.byte	-39
 542 0029 04       		.byte	4
 543 002a DF       		.byte	-33
 544 002b 01       		.byte	1
 545 002c 06       		.byte	6
 546 002d 08       		.byte	8
 547 002e 0C       		.byte	12
 548 002f 08       		.byte	8
 549 0030 0D       		.byte	13
 550 0031 80       		.byte	-128
 551 0032 1D       		.byte	29
 552 0033 0A       		.byte	10
 553 0034 1F       		.byte	31
 554 0035 10       		.byte	16
 555 0036 20       		.byte	32
 556 0037 40       		.byte	64
 557 0038 38       		.byte	56
 558 0039 01       		.byte	1
 559 003a 81       		.byte	-127
 560 003b 02       		.byte	2
 561 003c 87       		.byte	-121
 562 003d 10       		.byte	16
 563 003e 89       		.byte	-119
 564 003f 88       		.byte	-120
 565 0040 8C       		.byte	-116
 566 0041 41       		.byte	65
 567 0042 9A       		.byte	-102
 568 0043 08       		.byte	8
 569 0044 A0       		.byte	-96
 570 0045 08       		.byte	8
 571 0046 AA       		.byte	-86
 572 0047 08       		.byte	8
 573 0048 C0       		.byte	-64
 574 0049 40       		.byte	64
 575 004a C2       		.byte	-62
 576 004b A0       		.byte	-96
 577 004c CE       		.byte	-50
 578 004d 01       		.byte	1
 579 004e E6       		.byte	-26
 580 004f 20       		.byte	32
 581 0050 09       		.byte	9
 582 0051 80       		.byte	-128
 583 0052 0A       		.byte	10
 584 0053 10       		.byte	16
 585 0054 51       		.byte	81
 586 0055 10       		.byte	16
 587 0056 67       		.byte	103
 588 0057 40       		.byte	64
 589 0058 8E       		.byte	-114
 590 0059 10       		.byte	16
 591 005a C2       		.byte	-62
 592 005b 50       		.byte	80
ARM GAS  C:\Users\yura\AppData\Local\Temp\ccTVbRsY.s 			page 20


 593 005c D4       		.byte	-44
 594 005d 20       		.byte	32
 595 005e D8       		.byte	-40
 596 005f 80       		.byte	-128
 597 0060 5F       		.byte	95
 598 0061 80       		.byte	-128
 599 0062 83       		.byte	-125
 600 0063 80       		.byte	-128
 601 0064 87       		.byte	-121
 602 0065 40       		.byte	64
 603 0066 89       		.byte	-119
 604 0067 10       		.byte	16
 605 0068 95       		.byte	-107
 606 0069 20       		.byte	32
 607 006a 97       		.byte	-105
 608 006b 40       		.byte	64
 609 006c A9       		.byte	-87
 610 006d 80       		.byte	-128
 611 006e D6       		.byte	-42
 612 006f 20       		.byte	32
 613 0070 E2       		.byte	-30
 614 0071 80       		.byte	-128
 615 0072 E6       		.byte	-26
 616 0073 40       		.byte	64
 617 0074 EC       		.byte	-20
 618 0075 80       		.byte	-128
 619 0076 09       		.byte	9
 620 0077 10       		.byte	16
 621 0078 0B       		.byte	11
 622 0079 20       		.byte	32
 623 007a 60       		.byte	96
 624 007b 20       		.byte	32
 625 007c 8B       		.byte	-117
 626 007d 10       		.byte	16
 627 007e 8C       		.byte	-116
 628 007f 20       		.byte	32
 629 0080 8D       		.byte	-115
 630 0081 10       		.byte	16
 631 0082 C2       		.byte	-62
 632 0083 0A       		.byte	10
 633 0084 D8       		.byte	-40
 634 0085 02       		.byte	2
 635 0086 E0       		.byte	-32
 636 0087 02       		.byte	2
 637 0088 E2       		.byte	-30
 638 0089 04       		.byte	4
 639 008a E6       		.byte	-26
 640 008b 08       		.byte	8
 641              		.type	cy_cfg_addr_table.4870, %object
 642              		.size	cy_cfg_addr_table.4870, 24
 643              	cy_cfg_addr_table.4870:
 644 008c 02310F40 		.word	1074737410
 645 0090 0E320F40 		.word	1074737678
 646 0094 12330F40 		.word	1074737938
 647 0098 08400F40 		.word	1074741256
 648 009c 0B410F40 		.word	1074741515
 649 00a0 0B430F40 		.word	1074742027
ARM GAS  C:\Users\yura\AppData\Local\Temp\ccTVbRsY.s 			page 21


 650              		.text
 651              	.Letext0:
 652              		.file 2 "c:\\program files (x86)\\cypress\\psoc creator\\4.4\\psoc creator\\import\\gnu\\arm\\5.4.
 653              		.file 3 "Generated_Source\\PSoC4\\cytypes.h"
 654              		.file 4 "Generated_Source\\PSoC4\\CyLib.h"