ARM GAS  C:\Users\latao\AppData\Local\Temp\ccKajofx.s 			page 1


   1              		.syntax unified
   2              		.cpu cortex-m0
   3              		.fpu softvfp
   4              		.eabi_attribute 20, 1
   5              		.eabi_attribute 21, 1
   6              		.eabi_attribute 23, 3
   7              		.eabi_attribute 24, 1
   8              		.eabi_attribute 25, 1
   9              		.eabi_attribute 26, 1
  10              		.eabi_attribute 30, 1
  11              		.eabi_attribute 34, 0
  12              		.eabi_attribute 18, 4
  13              		.thumb
  14              		.syntax unified
  15              		.file	"main.c"
  16              		.text
  17              	.Ltext0:
  18              		.cfi_sections	.debug_frame
  19              		.section	.text.main,"ax",%progbits
  20              		.align	2
  21              		.global	main
  22              		.code	16
  23              		.thumb_func
  24              		.type	main, %function
  25              	main:
  26              	.LFB32:
  27              		.file 1 "main.c"
   1:main.c        **** #include <project.h>
   2:main.c        **** /* ADC channel 0 */
   3:main.c        **** #define POT_CHAN (0)
   4:main.c        **** #define WRITABLE (0)
   5:main.c        **** int main()
   6:main.c        **** {
  28              		.loc 1 6 0
  29              		.cfi_startproc
  30              		@ args = 0, pretend = 0, frame = 8
  31              		@ frame_needed = 0, uses_anonymous_args = 0
  32 0000 30B5     		push	{r4, r5, lr}
  33              		.cfi_def_cfa_offset 12
  34              		.cfi_offset 4, -12
  35              		.cfi_offset 5, -8
  36              		.cfi_offset 14, -4
  37 0002 83B0     		sub	sp, sp, #12
  38              		.cfi_def_cfa_offset 24
   7:main.c        ****  int16 counts; /* ADC result in counts */
   8:main.c        ****  int16 mVolts; /* ADC result in mVolts */
   9:main.c        ****  uint8 i2cReg[2]; /* 2 byte I2C register */
  10:main.c        ****  
  11:main.c        ****  ADC_Start();
  39              		.loc 1 11 0
  40 0004 FFF7FEFF 		bl	ADC_Start
  41              	.LVL0:
  12:main.c        ****  ADC_StartConvert();
  42              		.loc 1 12 0
  43 0008 FFF7FEFF 		bl	ADC_StartConvert
  44              	.LVL1:
  13:main.c        ****  LCD_Start();
ARM GAS  C:\Users\latao\AppData\Local\Temp\ccKajofx.s 			page 2


  45              		.loc 1 13 0
  46 000c FFF7FEFF 		bl	LCD_Start
  47              	.LVL2:
  14:main.c        ****  EZI2C_Start();
  48              		.loc 1 14 0
  49 0010 FFF7FEFF 		bl	EZI2C_Start
  50              	.LVL3:
  15:main.c        ****  
  16:main.c        ****  /* 2 byte I2C buffer, 0 bytes writeable by the host, name is I2CReg */
  17:main.c        ****  EZI2C_EzI2CSetBuffer1(sizeof(i2cReg), WRITABLE, i2cReg);
  51              		.loc 1 17 0
  52 0014 01AA     		add	r2, sp, #4
  53 0016 0021     		movs	r1, #0
  54 0018 0220     		movs	r0, #2
  55 001a FFF7FEFF 		bl	EZI2C_EzI2CSetBuffer1
  56              	.LVL4:
  18:main.c        ****  CyGlobalIntEnable;
  57              		.loc 1 18 0
  58              		.syntax divided
  59              	@ 18 "main.c" 1
  60 001e 62B6     		CPSIE   i
  61              	@ 0 "" 2
  62              		.thumb
  63              		.syntax unified
  64              	.L2:
  19:main.c        ****  for(;;)
  20:main.c        ****  {
  21:main.c        ****      /* Get ADC result and convert to mV */
  22:main.c        ****      counts = ADC_GetResult16(POT_CHAN);
  65              		.loc 1 22 0 discriminator 1
  66 0020 0020     		movs	r0, #0
  67 0022 FFF7FEFF 		bl	ADC_GetResult16
  68              	.LVL5:
  69 0026 0100     		movs	r1, r0
  70              	.LVL6:
  23:main.c        ****      mVolts = ADC_CountsTo_mVolts(POT_CHAN,counts);
  71              		.loc 1 23 0 discriminator 1
  72 0028 0020     		movs	r0, #0
  73 002a FFF7FEFF 		bl	ADC_CountsTo_mVolts
  74              	.LVL7:
  75 002e 0500     		movs	r5, r0
  76              	.LVL8:
  24:main.c        ****      
  25:main.c        ****      /* Display value to LCD */
  26:main.c        ****      LCD_Position(0,0);
  77              		.loc 1 26 0 discriminator 1
  78 0030 0021     		movs	r1, #0
  79 0032 0020     		movs	r0, #0
  80 0034 FFF7FEFF 		bl	LCD_Position
  81              	.LVL9:
  27:main.c        ****      LCD_PrintNumber(mVolts);
  82              		.loc 1 27 0 discriminator 1
  83 0038 ACB2     		uxth	r4, r5
  84 003a 2000     		movs	r0, r4
  85 003c FFF7FEFF 		bl	LCD_PrintU32Number
  86              	.LVL10:
  28:main.c        ****      LCD_PrintString("mV ");
ARM GAS  C:\Users\latao\AppData\Local\Temp\ccKajofx.s 			page 3


  87              		.loc 1 28 0 discriminator 1
  88 0040 0348     		ldr	r0, .L3
  89 0042 FFF7FEFF 		bl	LCD_PrintString
  90              	.LVL11:
  29:main.c        ****      
  30:main.c        ****      /* Store ADC value in I2C buffer */
  31:main.c        ****      i2cReg[0] = HI8(mVolts); /* upper byte of result */
  91              		.loc 1 31 0 discriminator 1
  92 0046 240A     		lsrs	r4, r4, #8
  93 0048 01AB     		add	r3, sp, #4
  94 004a 1C70     		strb	r4, [r3]
  32:main.c        ****      i2cReg[1] = LO8(mVolts); /* lower byte of result */
  95              		.loc 1 32 0 discriminator 1
  96 004c 5D70     		strb	r5, [r3, #1]
  97 004e E7E7     		b	.L2
  98              	.L4:
  99              		.align	2
 100              	.L3:
 101 0050 00000000 		.word	.LC0
 102              		.cfi_endproc
 103              	.LFE32:
 104              		.size	main, .-main
 105              		.section	.rodata.str1.4,"aMS",%progbits,1
 106              		.align	2
 107              	.LC0:
 108 0000 6D562000 		.ascii	"mV \000"
 109              		.text
 110              	.Letext0:
 111              		.file 2 "Generated_Source\\PSoC4/cytypes.h"
 112              		.file 3 "Generated_Source\\PSoC4/ADC.h"
 113              		.file 4 "Generated_Source\\PSoC4/LCD.h"
 114              		.file 5 "Generated_Source\\PSoC4/EZI2C.h"
 115              		.file 6 "Generated_Source\\PSoC4/EZI2C_EZI2C.h"